Certificate:
    Data:
        Version: 1 (0x0)
        Serial Number: 4099 (0x1003)
        Signature Algorithm: ecdsa-with-SHA256
        Issuer: C=CH, ST=Geneva, O=WHO, OU=TNG_TA, CN=WHO TNG_TA CA
        Validity
            Not Before: Jul  7 10:11:28 2023 GMT
            Not After : Jul 16 10:11:28 2024 GMT
        Subject: C=BE, ST=Brussel, L=Brussel, O=Vlaamse overheid, CN=Vlaamse overheid Issuing CA 2/emailAddress=vodcb@vlaanderen.be
        Subject Public Key Info:
            Public Key Algorithm: id-ecPublicKey
                Public-Key: (256 bit)
                pub:
                    04:c7:b3:eb:9c:24:23:94:47:e3:3a:60:9a:15:11:
                    a7:d2:e2:60:44:ad:4b:f1:63:b1:06:bd:7c:8b:aa:
                    9c:04:04:e0:e1:64:3f:2b:4f:9f:57:12:b0:c0:14:
                    41:26:9a:b9:12:e0:47:f1:3f:3c:3b:44:67:85:a6:
                    9b:81:60:9b:80
                ASN1 OID: prime256v1
                NIST CURVE: P-256
    Signature Algorithm: ecdsa-with-SHA256
    Signature Value:
        30:46:02:21:00:95:05:40:c7:23:f9:38:d0:73:7b:86:6a:8b:
        e8:dd:ed:e9:f5:ea:af:a6:65:03:e8:da:eb:62:bc:40:c6:e1:
        be:02:21:00:e5:64:a5:25:ff:3a:26:ee:1b:ed:ef:ac:eb:d5:
        ec:32:60:3b:99:de:b7:30:79:5d:00:87:48:ab:bb:54:1d:28
-----BEGIN CERTIFICATE-----
MIIB2DCCAX0CAhADMAoGCCqGSM49BAMCMFUxCzAJBgNVBAYTAkNIMQ8wDQYDVQQI
DAZHZW5ldmExDDAKBgNVBAoMA1dITzEPMA0GA1UECwwGVE5HX1RBMRYwFAYDVQQD
DA1XSE8gVE5HX1RBIENBMB4XDTIzMDcwNzEwMTEyOFoXDTI0MDcxNjEwMTEyOFow
gZgxCzAJBgNVBAYTAkJFMRAwDgYDVQQIDAdCcnVzc2VsMRAwDgYDVQQHDAdCcnVz
c2VsMRkwFwYDVQQKDBBWbGFhbXNlIG92ZXJoZWlkMSYwJAYDVQQDDB1WbGFhbXNl
IG92ZXJoZWlkIElzc3VpbmcgQ0EgMjEiMCAGCSqGSIb3DQEJARYTdm9kY2JAdmxh
YW5kZXJlbi5iZTBZMBMGByqGSM49AgEGCCqGSM49AwEHA0IABMez65wkI5RH4zpg
mhURp9LiYEStS/FjsQa9fIuqnAQE4OFkPytPn1cSsMAUQSaauRLgR/E/PDtEZ4Wm
m4Fgm4AwCgYIKoZIzj0EAwIDSQAwRgIhAJUFQMcj+TjQc3uGaovo3e3p9eqvpmUD
6NrrYrxAxuG+AiEA5WSlJf86Ju4b7e+s69XsMmA7md63MHldAIdIq7tUHSg=
-----END CERTIFICATE-----
