Certificate:
    Data:
        Version: 1 (0x0)
        Serial Number: 4166 (0x1046)
        Signature Algorithm: ecdsa-with-SHA256
        Issuer: C=CH, ST=Geneva, O=WHO, OU=TNG_TA, CN=WHO TNG_TA CA
        Validity
            Not Before: Jun 27 15:43:44 2023 GMT
            Not After : Jul  6 15:43:44 2024 GMT
        Subject: C=BE, ST=Brussel, L=Brussel, O=Vlaamse overheid, CN=Vlaamse overheid Issuing CA 2/emailAddress=vodcb@vlaanderen.be
        Subject Public Key Info:
            Public Key Algorithm: id-ecPublicKey
                Public-Key: (256 bit)
                pub:
                    04:c7:b3:eb:9c:24:23:94:47:e3:3a:60:9a:15:11:
                    a7:d2:e2:60:44:ad:4b:f1:63:b1:06:bd:7c:8b:aa:
                    9c:04:04:e0:e1:64:3f:2b:4f:9f:57:12:b0:c0:14:
                    41:26:9a:b9:12:e0:47:f1:3f:3c:3b:44:67:85:a6:
                    9b:81:60:9b:80
                ASN1 OID: prime256v1
                NIST CURVE: P-256
    Signature Algorithm: ecdsa-with-SHA256
         30:45:02:20:5e:54:95:37:9e:d1:35:cf:5a:98:74:14:82:6a:
         98:a4:9c:ea:7b:52:4e:16:2d:5c:f6:fc:f5:1d:a7:6c:d3:d4:
         02:21:00:fa:74:bd:81:a9:e0:e9:73:89:88:73:f9:ca:bb:cb:
         e8:9e:d2:33:3a:6a:58:c6:a9:2f:e1:c0:4d:59:92:9e:23
-----BEGIN CERTIFICATE-----
MIIB1zCCAX0CAhBGMAoGCCqGSM49BAMCMFUxCzAJBgNVBAYTAkNIMQ8wDQYDVQQI
DAZHZW5ldmExDDAKBgNVBAoMA1dITzEPMA0GA1UECwwGVE5HX1RBMRYwFAYDVQQD
DA1XSE8gVE5HX1RBIENBMB4XDTIzMDYyNzE1NDM0NFoXDTI0MDcwNjE1NDM0NFow
gZgxCzAJBgNVBAYTAkJFMRAwDgYDVQQIDAdCcnVzc2VsMRAwDgYDVQQHDAdCcnVz
c2VsMRkwFwYDVQQKDBBWbGFhbXNlIG92ZXJoZWlkMSYwJAYDVQQDDB1WbGFhbXNl
IG92ZXJoZWlkIElzc3VpbmcgQ0EgMjEiMCAGCSqGSIb3DQEJARYTdm9kY2JAdmxh
YW5kZXJlbi5iZTBZMBMGByqGSM49AgEGCCqGSM49AwEHA0IABMez65wkI5RH4zpg
mhURp9LiYEStS/FjsQa9fIuqnAQE4OFkPytPn1cSsMAUQSaauRLgR/E/PDtEZ4Wm
m4Fgm4AwCgYIKoZIzj0EAwIDSAAwRQIgXlSVN57RNc9amHQUgmqYpJzqe1JOFi1c
9vz1Hads09QCIQD6dL2BqeDpc4mIc/nKu8vontIzOmpYxqkv4cBNWZKeIw==
-----END CERTIFICATE-----
