Certificate:
    Data:
        Version: 1 (0x0)
        Serial Number: 4123 (0x101b)
        Signature Algorithm: ecdsa-with-SHA256
        Issuer: C=CH, ST=Geneva, O=WHO, OU=TNG_TA, CN=WHO TNG_TA CA
        Validity
            Not Before: Jul  7 17:18:16 2023 GMT
            Not After : Jul 16 17:18:16 2024 GMT
        Subject: C=SE, O=Swedish eHealth Agency, CN=dgcg-qa.covidbevis.se
        Subject Public Key Info:
            Public Key Algorithm: id-ecPublicKey
                Public-Key: (256 bit)
                pub:
                    04:c7:b3:eb:9c:24:23:94:47:e3:3a:60:9a:15:11:
                    a7:d2:e2:60:44:ad:4b:f1:63:b1:06:bd:7c:8b:aa:
                    9c:04:04:e0:e1:64:3f:2b:4f:9f:57:12:b0:c0:14:
                    41:26:9a:b9:12:e0:47:f1:3f:3c:3b:44:67:85:a6:
                    9b:81:60:9b:80
                ASN1 OID: prime256v1
                NIST CURVE: P-256
    Signature Algorithm: ecdsa-with-SHA256
    Signature Value:
        30:45:02:21:00:a0:6c:64:fc:29:57:22:1d:37:30:86:7b:a2:
        6b:92:8d:e1:05:5c:0b:8c:b3:40:aa:9a:12:ff:d3:0f:83:2f:
        c0:02:20:18:f2:9d:33:c3:ff:3e:ed:17:5a:7f:60:4f:ed:43:
        2e:95:20:f0:e8:a6:5e:1f:2d:15:2e:11:d3:ed:b4:2b:1c
-----BEGIN CERTIFICATE-----
MIIBjDCCATICAhAbMAoGCCqGSM49BAMCMFUxCzAJBgNVBAYTAkNIMQ8wDQYDVQQI
DAZHZW5ldmExDDAKBgNVBAoMA1dITzEPMA0GA1UECwwGVE5HX1RBMRYwFAYDVQQD
DA1XSE8gVE5HX1RBIENBMB4XDTIzMDcwNzE3MTgxNloXDTI0MDcxNjE3MTgxNlow
TjELMAkGA1UEBhMCU0UxHzAdBgNVBAoMFlN3ZWRpc2ggZUhlYWx0aCBBZ2VuY3kx
HjAcBgNVBAMMFWRnY2ctcWEuY292aWRiZXZpcy5zZTBZMBMGByqGSM49AgEGCCqG
SM49AwEHA0IABMez65wkI5RH4zpgmhURp9LiYEStS/FjsQa9fIuqnAQE4OFkPytP
n1cSsMAUQSaauRLgR/E/PDtEZ4Wmm4Fgm4AwCgYIKoZIzj0EAwIDSAAwRQIhAKBs
ZPwpVyIdNzCGe6Jrko3hBVwLjLNAqpoS/9MPgy/AAiAY8p0zw/8+7Rdaf2BP7UMu
lSDw6KZeHy0VLhHT7bQrHA==
-----END CERTIFICATE-----
