Certificate:
    Data:
        Version: 1 (0x0)
        Serial Number: 4122 (0x101a)
        Signature Algorithm: ecdsa-with-SHA256
        Issuer: C=CH, ST=Geneva, O=WHO, OU=TNG_TA, CN=WHO TNG_TA CA
        Validity
            Not Before: Jul  7 17:18:16 2023 GMT
            Not After : Jul 16 17:18:16 2024 GMT
        Subject: C=SE, O=Swedish eHealth Agency, CN=dgcg-qa.covidbevis.se
        Subject Public Key Info:
            Public Key Algorithm: id-ecPublicKey
                Public-Key: (256 bit)
                pub:
                    04:c7:b3:eb:9c:24:23:94:47:e3:3a:60:9a:15:11:
                    a7:d2:e2:60:44:ad:4b:f1:63:b1:06:bd:7c:8b:aa:
                    9c:04:04:e0:e1:64:3f:2b:4f:9f:57:12:b0:c0:14:
                    41:26:9a:b9:12:e0:47:f1:3f:3c:3b:44:67:85:a6:
                    9b:81:60:9b:80
                ASN1 OID: prime256v1
                NIST CURVE: P-256
    Signature Algorithm: ecdsa-with-SHA256
    Signature Value:
        30:44:02:20:60:fa:cc:19:63:5a:16:1e:64:40:4f:ea:ac:74:
        c3:45:2c:2c:0d:a1:5d:7f:b9:2a:af:c6:35:c1:12:a5:11:44:
        02:20:7a:ea:1c:5b:fa:16:2d:a8:76:e2:76:d3:79:70:ec:dc:
        4a:34:0e:75:7e:ad:be:89:34:04:02:06:1d:4b:16:73
-----BEGIN CERTIFICATE-----
MIIBizCCATICAhAaMAoGCCqGSM49BAMCMFUxCzAJBgNVBAYTAkNIMQ8wDQYDVQQI
DAZHZW5ldmExDDAKBgNVBAoMA1dITzEPMA0GA1UECwwGVE5HX1RBMRYwFAYDVQQD
DA1XSE8gVE5HX1RBIENBMB4XDTIzMDcwNzE3MTgxNloXDTI0MDcxNjE3MTgxNlow
TjELMAkGA1UEBhMCU0UxHzAdBgNVBAoMFlN3ZWRpc2ggZUhlYWx0aCBBZ2VuY3kx
HjAcBgNVBAMMFWRnY2ctcWEuY292aWRiZXZpcy5zZTBZMBMGByqGSM49AgEGCCqG
SM49AwEHA0IABMez65wkI5RH4zpgmhURp9LiYEStS/FjsQa9fIuqnAQE4OFkPytP
n1cSsMAUQSaauRLgR/E/PDtEZ4Wmm4Fgm4AwCgYIKoZIzj0EAwIDRwAwRAIgYPrM
GWNaFh5kQE/qrHTDRSwsDaFdf7kqr8Y1wRKlEUQCIHrqHFv6Fi2oduJ203lw7NxK
NA51fq2+iTQEAgYdSxZz
-----END CERTIFICATE-----
