Certificate:
    Data:
        Version: 1 (0x0)
        Serial Number: 4109 (0x100d)
        Signature Algorithm: ecdsa-with-SHA256
        Issuer: C=CH, ST=Geneva, O=WHO, OU=TNG_TA, CN=WHO TNG_TA CA
        Validity
            Not Before: Jul  7 10:11:29 2023 GMT
            Not After : Jul 16 10:11:29 2024 GMT
        Subject: C=SE, O=Swedish eHealth Agency, CN=dgcg-qa.covidbevis.se
        Subject Public Key Info:
            Public Key Algorithm: id-ecPublicKey
                Public-Key: (256 bit)
                pub:
                    04:c7:b3:eb:9c:24:23:94:47:e3:3a:60:9a:15:11:
                    a7:d2:e2:60:44:ad:4b:f1:63:b1:06:bd:7c:8b:aa:
                    9c:04:04:e0:e1:64:3f:2b:4f:9f:57:12:b0:c0:14:
                    41:26:9a:b9:12:e0:47:f1:3f:3c:3b:44:67:85:a6:
                    9b:81:60:9b:80
                ASN1 OID: prime256v1
                NIST CURVE: P-256
    Signature Algorithm: ecdsa-with-SHA256
    Signature Value:
        30:46:02:21:00:8d:3b:9f:88:46:ee:73:60:ae:83:4f:87:d1:
        8c:84:c1:7b:83:4a:03:05:e4:72:9d:a6:da:da:3b:58:7c:50:
        1e:02:21:00:e1:90:f5:21:04:f7:cd:31:81:2d:4b:27:4c:c3:
        de:f1:75:56:d3:8b:78:a5:36:94:3d:b1:76:6b:19:b4:7a:4b
-----BEGIN CERTIFICATE-----
MIIBjTCCATICAhANMAoGCCqGSM49BAMCMFUxCzAJBgNVBAYTAkNIMQ8wDQYDVQQI
DAZHZW5ldmExDDAKBgNVBAoMA1dITzEPMA0GA1UECwwGVE5HX1RBMRYwFAYDVQQD
DA1XSE8gVE5HX1RBIENBMB4XDTIzMDcwNzEwMTEyOVoXDTI0MDcxNjEwMTEyOVow
TjELMAkGA1UEBhMCU0UxHzAdBgNVBAoMFlN3ZWRpc2ggZUhlYWx0aCBBZ2VuY3kx
HjAcBgNVBAMMFWRnY2ctcWEuY292aWRiZXZpcy5zZTBZMBMGByqGSM49AgEGCCqG
SM49AwEHA0IABMez65wkI5RH4zpgmhURp9LiYEStS/FjsQa9fIuqnAQE4OFkPytP
n1cSsMAUQSaauRLgR/E/PDtEZ4Wmm4Fgm4AwCgYIKoZIzj0EAwIDSQAwRgIhAI07
n4hG7nNgroNPh9GMhMF7g0oDBeRynaba2jtYfFAeAiEA4ZD1IQT3zTGBLUsnTMPe
8XVW04t4pTaUPbF2axm0eks=
-----END CERTIFICATE-----
