Certificate:
    Data:
        Version: 1 (0x0)
        Serial Number: 4136 (0x1028)
        Signature Algorithm: ecdsa-with-SHA256
        Issuer: C=CH, ST=Geneva, O=WHO, OU=TNG_TA, CN=WHO TNG_TA CA
        Validity
            Not Before: Jul  7 17:18:17 2023 GMT
            Not After : Jul 16 17:18:17 2024 GMT
        Subject: C=XX, ST=RYAN TEST COUNTRY, CN=XX/emailAddress=ryan@seldonplan.com
        Subject Public Key Info:
            Public Key Algorithm: id-ecPublicKey
                Public-Key: (256 bit)
                pub:
                    04:c7:b3:eb:9c:24:23:94:47:e3:3a:60:9a:15:11:
                    a7:d2:e2:60:44:ad:4b:f1:63:b1:06:bd:7c:8b:aa:
                    9c:04:04:e0:e1:64:3f:2b:4f:9f:57:12:b0:c0:14:
                    41:26:9a:b9:12:e0:47:f1:3f:3c:3b:44:67:85:a6:
                    9b:81:60:9b:80
                ASN1 OID: prime256v1
                NIST CURVE: P-256
    Signature Algorithm: ecdsa-with-SHA256
    Signature Value:
        30:46:02:21:00:dc:4d:c3:9b:f2:38:c2:89:52:4b:d2:d6:c5:
        d5:1e:9c:cc:fa:c3:f6:5b:b8:ee:4b:d2:1d:2d:6f:12:b6:b4:
        00:02:21:00:9e:46:a3:0f:f3:4b:8d:f7:38:3b:17:99:3f:eb:
        e0:ff:fe:bd:83:0d:1e:ea:d9:9e:3b:3c:42:9d:1f:75:80:21
-----BEGIN CERTIFICATE-----
MIIBmTCCAT4CAhAoMAoGCCqGSM49BAMCMFUxCzAJBgNVBAYTAkNIMQ8wDQYDVQQI
DAZHZW5ldmExDDAKBgNVBAoMA1dITzEPMA0GA1UECwwGVE5HX1RBMRYwFAYDVQQD
DA1XSE8gVE5HX1RBIENBMB4XDTIzMDcwNzE3MTgxN1oXDTI0MDcxNjE3MTgxN1ow
WjELMAkGA1UEBhMCWFgxGjAYBgNVBAgMEVJZQU4gVEVTVCBDT1VOVFJZMQswCQYD
VQQDDAJYWDEiMCAGCSqGSIb3DQEJARYTcnlhbkBzZWxkb25wbGFuLmNvbTBZMBMG
ByqGSM49AgEGCCqGSM49AwEHA0IABMez65wkI5RH4zpgmhURp9LiYEStS/FjsQa9
fIuqnAQE4OFkPytPn1cSsMAUQSaauRLgR/E/PDtEZ4Wmm4Fgm4AwCgYIKoZIzj0E
AwIDSQAwRgIhANxNw5vyOMKJUkvS1sXVHpzM+sP2W7juS9IdLW8StrQAAiEAnkaj
D/NLjfc4OxeZP+vg//69gw0e6tmeOzxCnR91gCE=
-----END CERTIFICATE-----
