Certificate:
    Data:
        Version: 1 (0x0)
        Serial Number: 4106 (0x100a)
        Signature Algorithm: ecdsa-with-SHA256
        Issuer: C=CH, ST=Geneva, O=WHO, OU=TNG_TA, CN=WHO TNG_TA CA
        Validity
            Not Before: Jul  7 17:18:15 2023 GMT
            Not After : Jul 16 17:18:15 2024 GMT
        Subject: C=EE, ST=Harjumaa, L=Tallinn, O=Health and Welfare Information Systems Center, CN=DGC_TLS_TEST_EE_01
        Subject Public Key Info:
            Public Key Algorithm: id-ecPublicKey
                Public-Key: (256 bit)
                pub:
                    04:c7:b3:eb:9c:24:23:94:47:e3:3a:60:9a:15:11:
                    a7:d2:e2:60:44:ad:4b:f1:63:b1:06:bd:7c:8b:aa:
                    9c:04:04:e0:e1:64:3f:2b:4f:9f:57:12:b0:c0:14:
                    41:26:9a:b9:12:e0:47:f1:3f:3c:3b:44:67:85:a6:
                    9b:81:60:9b:80
                ASN1 OID: prime256v1
                NIST CURVE: P-256
    Signature Algorithm: ecdsa-with-SHA256
    Signature Value:
        30:44:02:20:28:5e:e5:fe:b0:19:f7:f7:3d:cf:82:4f:0c:d8:
        d8:2d:1a:a2:8f:db:a1:5a:09:24:28:59:2f:84:81:d8:b9:e1:
        02:20:3c:35:e2:ac:6d:eb:1d:7f:fb:50:f6:d0:3a:a5:da:9c:
        7c:76:31:5e:07:4a:24:28:be:91:c4:43:2a:6f:dc:f9
-----BEGIN CERTIFICATE-----
MIIBxTCCAWwCAhAKMAoGCCqGSM49BAMCMFUxCzAJBgNVBAYTAkNIMQ8wDQYDVQQI
DAZHZW5ldmExDDAKBgNVBAoMA1dITzEPMA0GA1UECwwGVE5HX1RBMRYwFAYDVQQD
DA1XSE8gVE5HX1RBIENBMB4XDTIzMDcwNzE3MTgxNVoXDTI0MDcxNjE3MTgxNVow
gYcxCzAJBgNVBAYTAkVFMREwDwYDVQQIDAhIYXJqdW1hYTEQMA4GA1UEBwwHVGFs
bGlubjE2MDQGA1UECgwtSGVhbHRoIGFuZCBXZWxmYXJlIEluZm9ybWF0aW9uIFN5
c3RlbXMgQ2VudGVyMRswGQYDVQQDDBJER0NfVExTX1RFU1RfRUVfMDEwWTATBgcq
hkjOPQIBBggqhkjOPQMBBwNCAATHs+ucJCOUR+M6YJoVEafS4mBErUvxY7EGvXyL
qpwEBODhZD8rT59XErDAFEEmmrkS4EfxPzw7RGeFppuBYJuAMAoGCCqGSM49BAMC
A0cAMEQCIChe5f6wGff3Pc+CTwzY2C0aoo/boVoJJChZL4SB2LnhAiA8NeKsbesd
f/tQ9tA6pdqcfHYxXgdKJCi+kcRDKm/c+Q==
-----END CERTIFICATE-----
