Certificate:
    Data:
        Version: 1 (0x0)
        Serial Number: 4107 (0x100b)
        Signature Algorithm: ecdsa-with-SHA256
        Issuer: C=CH, ST=Geneva, O=WHO, OU=TNG_TA, CN=WHO TNG_TA CA
        Validity
            Not Before: Jul  7 17:18:15 2023 GMT
            Not After : Jul 16 17:18:15 2024 GMT
        Subject: C=EE, ST=Harjumaa, L=Tallinn, O=Health and Welfare Information Systems Center, CN=DGC_TLS_TEST_EE_01
        Subject Public Key Info:
            Public Key Algorithm: id-ecPublicKey
                Public-Key: (256 bit)
                pub:
                    04:c7:b3:eb:9c:24:23:94:47:e3:3a:60:9a:15:11:
                    a7:d2:e2:60:44:ad:4b:f1:63:b1:06:bd:7c:8b:aa:
                    9c:04:04:e0:e1:64:3f:2b:4f:9f:57:12:b0:c0:14:
                    41:26:9a:b9:12:e0:47:f1:3f:3c:3b:44:67:85:a6:
                    9b:81:60:9b:80
                ASN1 OID: prime256v1
                NIST CURVE: P-256
    Signature Algorithm: ecdsa-with-SHA256
    Signature Value:
        30:45:02:20:46:74:5c:a0:90:2f:a6:23:25:08:b2:33:0e:bd:
        27:99:e1:64:c2:80:1e:02:ac:7b:fd:1f:88:f2:c5:42:8a:f5:
        02:21:00:ac:1b:8d:89:3f:ab:fe:28:ad:40:af:7b:71:20:78:
        d0:87:3c:a0:63:00:80:dc:35:6e:89:2c:98:eb:06:57:0c
-----BEGIN CERTIFICATE-----
MIIBxjCCAWwCAhALMAoGCCqGSM49BAMCMFUxCzAJBgNVBAYTAkNIMQ8wDQYDVQQI
DAZHZW5ldmExDDAKBgNVBAoMA1dITzEPMA0GA1UECwwGVE5HX1RBMRYwFAYDVQQD
DA1XSE8gVE5HX1RBIENBMB4XDTIzMDcwNzE3MTgxNVoXDTI0MDcxNjE3MTgxNVow
gYcxCzAJBgNVBAYTAkVFMREwDwYDVQQIDAhIYXJqdW1hYTEQMA4GA1UEBwwHVGFs
bGlubjE2MDQGA1UECgwtSGVhbHRoIGFuZCBXZWxmYXJlIEluZm9ybWF0aW9uIFN5
c3RlbXMgQ2VudGVyMRswGQYDVQQDDBJER0NfVExTX1RFU1RfRUVfMDEwWTATBgcq
hkjOPQIBBggqhkjOPQMBBwNCAATHs+ucJCOUR+M6YJoVEafS4mBErUvxY7EGvXyL
qpwEBODhZD8rT59XErDAFEEmmrkS4EfxPzw7RGeFppuBYJuAMAoGCCqGSM49BAMC
A0gAMEUCIEZ0XKCQL6YjJQiyMw69J5nhZMKAHgKse/0fiPLFQor1AiEArBuNiT+r
/iitQK97cSB40Ic8oGMAgNw1boksmOsGVww=
-----END CERTIFICATE-----
