Certificate:
    Data:
        Version: 1 (0x0)
        Serial Number: 4102 (0x1006)
        Signature Algorithm: ecdsa-with-SHA256
        Issuer: C=CH, ST=Geneva, O=WHO, OU=TNG_TA, CN=WHO TNG_TA CA
        Validity
            Not Before: Jul  7 10:11:28 2023 GMT
            Not After : Jul 16 10:11:28 2024 GMT
        Subject: C=EE, ST=Harjumaa, L=Tallinn, O=Health and Welfare Information Systems Center, CN=DGC_TLS_TEST_EE_01
        Subject Public Key Info:
            Public Key Algorithm: id-ecPublicKey
                Public-Key: (256 bit)
                pub:
                    04:c7:b3:eb:9c:24:23:94:47:e3:3a:60:9a:15:11:
                    a7:d2:e2:60:44:ad:4b:f1:63:b1:06:bd:7c:8b:aa:
                    9c:04:04:e0:e1:64:3f:2b:4f:9f:57:12:b0:c0:14:
                    41:26:9a:b9:12:e0:47:f1:3f:3c:3b:44:67:85:a6:
                    9b:81:60:9b:80
                ASN1 OID: prime256v1
                NIST CURVE: P-256
    Signature Algorithm: ecdsa-with-SHA256
    Signature Value:
        30:46:02:21:00:a9:ca:11:85:74:31:08:d7:d0:e4:d1:bb:0d:
        fc:93:1b:f4:fb:1a:4c:93:7c:75:e0:88:78:63:f2:33:68:9c:
        a1:02:21:00:de:4c:27:1f:25:52:14:18:ce:25:cf:53:55:4e:
        8c:35:db:3f:8e:f9:01:70:82:69:f6:c1:ff:e7:61:8d:50:81
-----BEGIN CERTIFICATE-----
MIIBxzCCAWwCAhAGMAoGCCqGSM49BAMCMFUxCzAJBgNVBAYTAkNIMQ8wDQYDVQQI
DAZHZW5ldmExDDAKBgNVBAoMA1dITzEPMA0GA1UECwwGVE5HX1RBMRYwFAYDVQQD
DA1XSE8gVE5HX1RBIENBMB4XDTIzMDcwNzEwMTEyOFoXDTI0MDcxNjEwMTEyOFow
gYcxCzAJBgNVBAYTAkVFMREwDwYDVQQIDAhIYXJqdW1hYTEQMA4GA1UEBwwHVGFs
bGlubjE2MDQGA1UECgwtSGVhbHRoIGFuZCBXZWxmYXJlIEluZm9ybWF0aW9uIFN5
c3RlbXMgQ2VudGVyMRswGQYDVQQDDBJER0NfVExTX1RFU1RfRUVfMDEwWTATBgcq
hkjOPQIBBggqhkjOPQMBBwNCAATHs+ucJCOUR+M6YJoVEafS4mBErUvxY7EGvXyL
qpwEBODhZD8rT59XErDAFEEmmrkS4EfxPzw7RGeFppuBYJuAMAoGCCqGSM49BAMC
A0kAMEYCIQCpyhGFdDEI19Dk0bsN/JMb9PsaTJN8deCIeGPyM2icoQIhAN5MJx8l
UhQYziXPU1VOjDXbP475AXCCafbB/+dhjVCB
-----END CERTIFICATE-----
