Certificate:
    Data:
        Version: 1 (0x0)
        Serial Number: 4098 (0x1002)
        Signature Algorithm: ecdsa-with-SHA256
        Issuer: C=CH, ST=Geneva, O=WHO, OU=TNG_TA, CN=WHO TNG_TA CA
        Validity
            Not Before: Jul  7 10:11:28 2023 GMT
            Not After : Jul 16 10:11:28 2024 GMT
        Subject: C=BE, O=eHealth - Vlaamse Overheid, OU=MAGDA, CN=attestations-tls-acpt.magda.vlaanderen.be/emailAddress=helpdesk.magda@vlaanderen.be
        Subject Public Key Info:
            Public Key Algorithm: id-ecPublicKey
                Public-Key: (256 bit)
                pub:
                    04:c7:b3:eb:9c:24:23:94:47:e3:3a:60:9a:15:11:
                    a7:d2:e2:60:44:ad:4b:f1:63:b1:06:bd:7c:8b:aa:
                    9c:04:04:e0:e1:64:3f:2b:4f:9f:57:12:b0:c0:14:
                    41:26:9a:b9:12:e0:47:f1:3f:3c:3b:44:67:85:a6:
                    9b:81:60:9b:80
                ASN1 OID: prime256v1
                NIST CURVE: P-256
    Signature Algorithm: ecdsa-with-SHA256
    Signature Value:
        30:44:02:20:75:0f:97:5a:e2:fd:ac:4b:3c:5e:3e:50:cb:ce:
        2b:2b:5f:40:bc:71:ba:ad:da:99:fe:d5:5f:a9:08:fb:ff:d5:
        02:20:3b:4e:39:62:ba:72:4c:ce:b0:76:1a:d4:fc:71:ab:e5:
        08:7f:e1:c6:1e:ad:78:f8:8a:2c:ac:21:45:5c:11:94
-----BEGIN CERTIFICATE-----
MIIB4TCCAYgCAhACMAoGCCqGSM49BAMCMFUxCzAJBgNVBAYTAkNIMQ8wDQYDVQQI
DAZHZW5ldmExDDAKBgNVBAoMA1dITzEPMA0GA1UECwwGVE5HX1RBMRYwFAYDVQQD
DA1XSE8gVE5HX1RBIENBMB4XDTIzMDcwNzEwMTEyOFoXDTI0MDcxNjEwMTEyOFow
gaMxCzAJBgNVBAYTAkJFMSMwIQYDVQQKDBplSGVhbHRoIC0gVmxhYW1zZSBPdmVy
aGVpZDEOMAwGA1UECwwFTUFHREExMjAwBgNVBAMMKWF0dGVzdGF0aW9ucy10bHMt
YWNwdC5tYWdkYS52bGFhbmRlcmVuLmJlMSswKQYJKoZIhvcNAQkBFhxoZWxwZGVz
ay5tYWdkYUB2bGFhbmRlcmVuLmJlMFkwEwYHKoZIzj0CAQYIKoZIzj0DAQcDQgAE
x7PrnCQjlEfjOmCaFRGn0uJgRK1L8WOxBr18i6qcBATg4WQ/K0+fVxKwwBRBJpq5
EuBH8T88O0RnhaabgWCbgDAKBggqhkjOPQQDAgNHADBEAiB1D5da4v2sSzxePlDL
zisrX0C8cbqt2pn+1V+pCPv/1QIgO045YrpyTM6wdhrU/HGr5Qh/4cYerXj4iiys
IUVcEZQ=
-----END CERTIFICATE-----
