Certificate:
    Data:
        Version: 1 (0x0)
        Serial Number: 4116 (0x1014)
        Signature Algorithm: ecdsa-with-SHA256
        Issuer: C=CH, ST=Geneva, O=WHO, OU=TNG_TA, CN=WHO TNG_TA CA
        Validity
            Not Before: Jul  7 17:18:15 2023 GMT
            Not After : Jul 16 17:18:15 2024 GMT
        Subject: C=HR, ST=ZG, L=Zagreb, O=AKD d.o.o., OU=ICTInfrastructure, CN=ACC-Croatia_NBUP_2023
        Subject Public Key Info:
            Public Key Algorithm: id-ecPublicKey
                Public-Key: (256 bit)
                pub:
                    04:c7:b3:eb:9c:24:23:94:47:e3:3a:60:9a:15:11:
                    a7:d2:e2:60:44:ad:4b:f1:63:b1:06:bd:7c:8b:aa:
                    9c:04:04:e0:e1:64:3f:2b:4f:9f:57:12:b0:c0:14:
                    41:26:9a:b9:12:e0:47:f1:3f:3c:3b:44:67:85:a6:
                    9b:81:60:9b:80
                ASN1 OID: prime256v1
                NIST CURVE: P-256
    Signature Algorithm: ecdsa-with-SHA256
    Signature Value:
        30:45:02:21:00:a7:64:ee:11:86:d6:e8:19:b1:e1:ad:43:3a:
        c1:04:af:a5:01:57:9e:e5:25:b1:a7:9d:43:3d:fc:83:76:e5:
        1b:02:20:2c:93:e9:79:aa:cd:eb:09:05:a3:32:ac:3f:b2:8b:
        21:6b:4a:5a:c7:20:f5:d3:df:05:45:c4:7c:a4:7b:95:9b
-----BEGIN CERTIFICATE-----
MIIBujCCAWACAhAUMAoGCCqGSM49BAMCMFUxCzAJBgNVBAYTAkNIMQ8wDQYDVQQI
DAZHZW5ldmExDDAKBgNVBAoMA1dITzEPMA0GA1UECwwGVE5HX1RBMRYwFAYDVQQD
DA1XSE8gVE5HX1RBIENBMB4XDTIzMDcwNzE3MTgxNVoXDTI0MDcxNjE3MTgxNVow
fDELMAkGA1UEBhMCSFIxCzAJBgNVBAgMAlpHMQ8wDQYDVQQHDAZaYWdyZWIxEzAR
BgNVBAoMCkFLRCBkLm8uby4xGjAYBgNVBAsMEUlDVEluZnJhc3RydWN0dXJlMR4w
HAYDVQQDDBVBQ0MtQ3JvYXRpYV9OQlVQXzIwMjMwWTATBgcqhkjOPQIBBggqhkjO
PQMBBwNCAATHs+ucJCOUR+M6YJoVEafS4mBErUvxY7EGvXyLqpwEBODhZD8rT59X
ErDAFEEmmrkS4EfxPzw7RGeFppuBYJuAMAoGCCqGSM49BAMCA0gAMEUCIQCnZO4R
htboGbHhrUM6wQSvpQFXnuUlsaedQz38g3blGwIgLJPpearN6wkFozKsP7KLIWtK
Wscg9dPfBUXEfKR7lZs=
-----END CERTIFICATE-----
