Certificate:
    Data:
        Version: 1 (0x0)
        Serial Number: 4098 (0x1002)
        Signature Algorithm: ecdsa-with-SHA256
        Issuer: C=CH, ST=Geneva, O=WHO, OU=TNG_TA, CN=WHO TNG_TA CA
        Validity
            Not Before: Jul  7 17:18:14 2023 GMT
            Not After : Jul 16 17:18:14 2024 GMT
        Subject: C=BE, O=eHealth - Vlaamse Overheid, OU=MAGDA, CN=attestations-tls-acpt.magda.vlaanderen.be/emailAddress=helpdesk.magda@vlaanderen.be
        Subject Public Key Info:
            Public Key Algorithm: id-ecPublicKey
                Public-Key: (256 bit)
                pub:
                    04:c7:b3:eb:9c:24:23:94:47:e3:3a:60:9a:15:11:
                    a7:d2:e2:60:44:ad:4b:f1:63:b1:06:bd:7c:8b:aa:
                    9c:04:04:e0:e1:64:3f:2b:4f:9f:57:12:b0:c0:14:
                    41:26:9a:b9:12:e0:47:f1:3f:3c:3b:44:67:85:a6:
                    9b:81:60:9b:80
                ASN1 OID: prime256v1
                NIST CURVE: P-256
    Signature Algorithm: ecdsa-with-SHA256
    Signature Value:
        30:46:02:21:00:cd:41:71:fd:73:ab:86:df:ab:4a:66:82:e7:
        30:92:a5:7a:c3:6a:b3:97:59:37:6a:b8:68:65:2a:4f:a4:00:
        75:02:21:00:b3:4b:d3:24:a3:57:55:fd:0d:9c:cb:5a:14:f3:
        fd:86:7c:7f:5e:9d:62:59:3c:48:a4:c2:98:c2:3a:1e:c3:7b
-----BEGIN CERTIFICATE-----
MIIB4zCCAYgCAhACMAoGCCqGSM49BAMCMFUxCzAJBgNVBAYTAkNIMQ8wDQYDVQQI
DAZHZW5ldmExDDAKBgNVBAoMA1dITzEPMA0GA1UECwwGVE5HX1RBMRYwFAYDVQQD
DA1XSE8gVE5HX1RBIENBMB4XDTIzMDcwNzE3MTgxNFoXDTI0MDcxNjE3MTgxNFow
gaMxCzAJBgNVBAYTAkJFMSMwIQYDVQQKDBplSGVhbHRoIC0gVmxhYW1zZSBPdmVy
aGVpZDEOMAwGA1UECwwFTUFHREExMjAwBgNVBAMMKWF0dGVzdGF0aW9ucy10bHMt
YWNwdC5tYWdkYS52bGFhbmRlcmVuLmJlMSswKQYJKoZIhvcNAQkBFhxoZWxwZGVz
ay5tYWdkYUB2bGFhbmRlcmVuLmJlMFkwEwYHKoZIzj0CAQYIKoZIzj0DAQcDQgAE
x7PrnCQjlEfjOmCaFRGn0uJgRK1L8WOxBr18i6qcBATg4WQ/K0+fVxKwwBRBJpq5
EuBH8T88O0RnhaabgWCbgDAKBggqhkjOPQQDAgNJADBGAiEAzUFx/XOrht+rSmaC
5zCSpXrDarOXWTdquGhlKk+kAHUCIQCzS9Mko1dV/Q2cy1oU8/2GfH9enWJZPEik
wpjCOh7Dew==
-----END CERTIFICATE-----
