Certificate:
    Data:
        Version: 1 (0x0)
        Serial Number: 4099 (0x1003)
        Signature Algorithm: ecdsa-with-SHA256
        Issuer: C=CH, ST=Geneva, O=WHO, OU=TNG_TA, CN=WHO TNG_TA CA
        Validity
            Not Before: Jul  7 17:18:14 2023 GMT
            Not After : Jul 16 17:18:14 2024 GMT
        Subject: C=BE, O=eHealth - Vlaamse Overheid, OU=MAGDA, CN=attestations-tls-acpt.magda.vlaanderen.be/emailAddress=helpdesk.magda@vlaanderen.be
        Subject Public Key Info:
            Public Key Algorithm: id-ecPublicKey
                Public-Key: (256 bit)
                pub:
                    04:c7:b3:eb:9c:24:23:94:47:e3:3a:60:9a:15:11:
                    a7:d2:e2:60:44:ad:4b:f1:63:b1:06:bd:7c:8b:aa:
                    9c:04:04:e0:e1:64:3f:2b:4f:9f:57:12:b0:c0:14:
                    41:26:9a:b9:12:e0:47:f1:3f:3c:3b:44:67:85:a6:
                    9b:81:60:9b:80
                ASN1 OID: prime256v1
                NIST CURVE: P-256
    Signature Algorithm: ecdsa-with-SHA256
    Signature Value:
        30:45:02:20:3b:50:ba:c9:6e:d6:ab:a7:bf:d4:9d:b6:9c:16:
        66:63:5c:e7:78:ed:20:61:5b:4f:28:54:85:34:7a:bc:23:ec:
        02:21:00:f2:2b:cc:3c:59:40:e6:3c:58:ac:ef:2b:91:84:f3:
        10:12:a9:90:1e:e8:fa:e8:2b:ee:ed:06:b9:05:77:5d:ae
-----BEGIN CERTIFICATE-----
MIIB4jCCAYgCAhADMAoGCCqGSM49BAMCMFUxCzAJBgNVBAYTAkNIMQ8wDQYDVQQI
DAZHZW5ldmExDDAKBgNVBAoMA1dITzEPMA0GA1UECwwGVE5HX1RBMRYwFAYDVQQD
DA1XSE8gVE5HX1RBIENBMB4XDTIzMDcwNzE3MTgxNFoXDTI0MDcxNjE3MTgxNFow
gaMxCzAJBgNVBAYTAkJFMSMwIQYDVQQKDBplSGVhbHRoIC0gVmxhYW1zZSBPdmVy
aGVpZDEOMAwGA1UECwwFTUFHREExMjAwBgNVBAMMKWF0dGVzdGF0aW9ucy10bHMt
YWNwdC5tYWdkYS52bGFhbmRlcmVuLmJlMSswKQYJKoZIhvcNAQkBFhxoZWxwZGVz
ay5tYWdkYUB2bGFhbmRlcmVuLmJlMFkwEwYHKoZIzj0CAQYIKoZIzj0DAQcDQgAE
x7PrnCQjlEfjOmCaFRGn0uJgRK1L8WOxBr18i6qcBATg4WQ/K0+fVxKwwBRBJpq5
EuBH8T88O0RnhaabgWCbgDAKBggqhkjOPQQDAgNIADBFAiA7ULrJbtarp7/Unbac
FmZjXOd47SBhW08oVIU0erwj7AIhAPIrzDxZQOY8WKzvK5GE8xASqZAe6ProK+7t
BrkFd12u
-----END CERTIFICATE-----
