Certificate:
    Data:
        Version: 1 (0x0)
        Serial Number: 4097 (0x1001)
        Signature Algorithm: ecdsa-with-SHA256
        Issuer: C=CH, ST=Geneva, O=WHO, OU=TNG_TA, CN=WHO TNG_TA CA
        Validity
            Not Before: Jul  7 10:11:28 2023 GMT
            Not After : Jul 16 10:11:28 2024 GMT
        Subject: C=BE, O=eHealth - Vlaamse Overheid, OU=MAGDA, CN=attestations-tls-acpt.magda.vlaanderen.be/emailAddress=helpdesk.magda@vlaanderen.be
        Subject Public Key Info:
            Public Key Algorithm: id-ecPublicKey
                Public-Key: (256 bit)
                pub:
                    04:c7:b3:eb:9c:24:23:94:47:e3:3a:60:9a:15:11:
                    a7:d2:e2:60:44:ad:4b:f1:63:b1:06:bd:7c:8b:aa:
                    9c:04:04:e0:e1:64:3f:2b:4f:9f:57:12:b0:c0:14:
                    41:26:9a:b9:12:e0:47:f1:3f:3c:3b:44:67:85:a6:
                    9b:81:60:9b:80
                ASN1 OID: prime256v1
                NIST CURVE: P-256
    Signature Algorithm: ecdsa-with-SHA256
    Signature Value:
        30:45:02:20:1e:0b:7b:f6:21:7d:89:eb:f9:d8:68:d8:0e:c5:
        21:b9:93:23:66:fb:9c:0d:50:5e:6f:17:4a:fc:75:a8:59:37:
        02:21:00:fc:96:07:22:18:08:c1:c3:c0:e6:32:c0:19:70:f6:
        68:59:ab:44:09:73:94:5c:a7:99:a0:7b:3c:4f:47:04:f3
-----BEGIN CERTIFICATE-----
MIIB4jCCAYgCAhABMAoGCCqGSM49BAMCMFUxCzAJBgNVBAYTAkNIMQ8wDQYDVQQI
DAZHZW5ldmExDDAKBgNVBAoMA1dITzEPMA0GA1UECwwGVE5HX1RBMRYwFAYDVQQD
DA1XSE8gVE5HX1RBIENBMB4XDTIzMDcwNzEwMTEyOFoXDTI0MDcxNjEwMTEyOFow
gaMxCzAJBgNVBAYTAkJFMSMwIQYDVQQKDBplSGVhbHRoIC0gVmxhYW1zZSBPdmVy
aGVpZDEOMAwGA1UECwwFTUFHREExMjAwBgNVBAMMKWF0dGVzdGF0aW9ucy10bHMt
YWNwdC5tYWdkYS52bGFhbmRlcmVuLmJlMSswKQYJKoZIhvcNAQkBFhxoZWxwZGVz
ay5tYWdkYUB2bGFhbmRlcmVuLmJlMFkwEwYHKoZIzj0CAQYIKoZIzj0DAQcDQgAE
x7PrnCQjlEfjOmCaFRGn0uJgRK1L8WOxBr18i6qcBATg4WQ/K0+fVxKwwBRBJpq5
EuBH8T88O0RnhaabgWCbgDAKBggqhkjOPQQDAgNIADBFAiAeC3v2IX2J6/nYaNgO
xSG5kyNm+5wNUF5vF0r8dahZNwIhAPyWByIYCMHDwOYywBlw9mhZq0QJc5Rcp5mg
ezxPRwTz
-----END CERTIFICATE-----
