Certificate:
    Data:
        Version: 1 (0x0)
        Serial Number: 4132 (0x1024)
        Signature Algorithm: ecdsa-with-SHA256
        Issuer: C=CH, ST=Geneva, O=WHO, OU=TNG_TA, CN=WHO TNG_TA CA
        Validity
            Not Before: Jul  7 17:18:17 2023 GMT
            Not After : Jul 16 17:18:17 2024 GMT
        Subject: C=XD, CN=client.testcountry.xd/emailAddress=sandhur@who.int
        Subject Public Key Info:
            Public Key Algorithm: id-ecPublicKey
                Public-Key: (256 bit)
                pub:
                    04:c7:b3:eb:9c:24:23:94:47:e3:3a:60:9a:15:11:
                    a7:d2:e2:60:44:ad:4b:f1:63:b1:06:bd:7c:8b:aa:
                    9c:04:04:e0:e1:64:3f:2b:4f:9f:57:12:b0:c0:14:
                    41:26:9a:b9:12:e0:47:f1:3f:3c:3b:44:67:85:a6:
                    9b:81:60:9b:80
                ASN1 OID: prime256v1
                NIST CURVE: P-256
    Signature Algorithm: ecdsa-with-SHA256
    Signature Value:
        30:45:02:20:62:11:85:28:57:26:04:38:4d:ac:6f:f9:3a:4e:
        da:22:50:97:62:37:9c:67:97:2e:77:5d:67:2d:c3:9e:e7:88:
        02:21:00:a7:50:5a:b7:71:e9:88:49:6f:1c:a4:af:15:9a:0e:
        ec:97:80:86:62:d2:fe:68:1a:c2:6b:91:7e:0d:4f:bf:49
-----BEGIN CERTIFICATE-----
MIIBizCCATECAhAkMAoGCCqGSM49BAMCMFUxCzAJBgNVBAYTAkNIMQ8wDQYDVQQI
DAZHZW5ldmExDDAKBgNVBAoMA1dITzEPMA0GA1UECwwGVE5HX1RBMRYwFAYDVQQD
DA1XSE8gVE5HX1RBIENBMB4XDTIzMDcwNzE3MTgxN1oXDTI0MDcxNjE3MTgxN1ow
TTELMAkGA1UEBhMCWEQxHjAcBgNVBAMMFWNsaWVudC50ZXN0Y291bnRyeS54ZDEe
MBwGCSqGSIb3DQEJARYPc2FuZGh1ckB3aG8uaW50MFkwEwYHKoZIzj0CAQYIKoZI
zj0DAQcDQgAEx7PrnCQjlEfjOmCaFRGn0uJgRK1L8WOxBr18i6qcBATg4WQ/K0+f
VxKwwBRBJpq5EuBH8T88O0RnhaabgWCbgDAKBggqhkjOPQQDAgNIADBFAiBiEYUo
VyYEOE2sb/k6TtoiUJdiN5xnly53XWctw57niAIhAKdQWrdx6YhJbxykrxWaDuyX
gIZi0v5oGsJrkX4NT79J
-----END CERTIFICATE-----
