Certificate:
    Data:
        Version: 1 (0x0)
        Serial Number: 4133 (0x1025)
        Signature Algorithm: ecdsa-with-SHA256
        Issuer: C=CH, ST=Geneva, O=WHO, OU=TNG_TA, CN=WHO TNG_TA CA
        Validity
            Not Before: Jul  7 17:18:17 2023 GMT
            Not After : Jul 16 17:18:17 2024 GMT
        Subject: C=XD, CN=client.testcountry.xd/emailAddress=sandhur@who.int
        Subject Public Key Info:
            Public Key Algorithm: id-ecPublicKey
                Public-Key: (256 bit)
                pub:
                    04:c7:b3:eb:9c:24:23:94:47:e3:3a:60:9a:15:11:
                    a7:d2:e2:60:44:ad:4b:f1:63:b1:06:bd:7c:8b:aa:
                    9c:04:04:e0:e1:64:3f:2b:4f:9f:57:12:b0:c0:14:
                    41:26:9a:b9:12:e0:47:f1:3f:3c:3b:44:67:85:a6:
                    9b:81:60:9b:80
                ASN1 OID: prime256v1
                NIST CURVE: P-256
    Signature Algorithm: ecdsa-with-SHA256
    Signature Value:
        30:46:02:21:00:8f:f1:f4:85:66:4b:60:f6:58:fa:b9:e7:29:
        11:96:81:8d:f1:aa:8c:86:da:e3:4b:cc:f0:cf:70:86:7a:ec:
        09:02:21:00:db:e3:14:7e:54:e5:95:e2:64:a3:f4:b7:63:9b:
        b4:52:a3:d9:2d:01:01:94:02:3e:6e:37:15:a8:55:91:04:d7
-----BEGIN CERTIFICATE-----
MIIBjDCCATECAhAlMAoGCCqGSM49BAMCMFUxCzAJBgNVBAYTAkNIMQ8wDQYDVQQI
DAZHZW5ldmExDDAKBgNVBAoMA1dITzEPMA0GA1UECwwGVE5HX1RBMRYwFAYDVQQD
DA1XSE8gVE5HX1RBIENBMB4XDTIzMDcwNzE3MTgxN1oXDTI0MDcxNjE3MTgxN1ow
TTELMAkGA1UEBhMCWEQxHjAcBgNVBAMMFWNsaWVudC50ZXN0Y291bnRyeS54ZDEe
MBwGCSqGSIb3DQEJARYPc2FuZGh1ckB3aG8uaW50MFkwEwYHKoZIzj0CAQYIKoZI
zj0DAQcDQgAEx7PrnCQjlEfjOmCaFRGn0uJgRK1L8WOxBr18i6qcBATg4WQ/K0+f
VxKwwBRBJpq5EuBH8T88O0RnhaabgWCbgDAKBggqhkjOPQQDAgNJADBGAiEAj/H0
hWZLYPZY+rnnKRGWgY3xqoyG2uNLzPDPcIZ67AkCIQDb4xR+VOWV4mSj9Ldjm7RS
o9ktAQGUAj5uNxWoVZEE1w==
-----END CERTIFICATE-----
