Certificate:
    Data:
        Version: 1 (0x0)
        Serial Number: 4104 (0x1008)
        Signature Algorithm: ecdsa-with-SHA256
        Issuer: C=CH, ST=Geneva, O=WHO, OU=TNG_TA, CN=WHO TNG_TA CA
        Validity
            Not Before: Jul  7 17:18:15 2023 GMT
            Not After : Jul 16 17:18:15 2024 GMT
        Subject: C=ES, ST=EspaF1a, L=Madrid, O=Ministerio de Sanidad, OU=SGITS, CN=PRUEBAS_SELLO_MINISTERIO_SANIDAD_CERTIFICACION_COVID19/emailAddress=soportesistemas@mscbs.es
        Subject Public Key Info:
            Public Key Algorithm: id-ecPublicKey
                Public-Key: (256 bit)
                pub:
                    04:c7:b3:eb:9c:24:23:94:47:e3:3a:60:9a:15:11:
                    a7:d2:e2:60:44:ad:4b:f1:63:b1:06:bd:7c:8b:aa:
                    9c:04:04:e0:e1:64:3f:2b:4f:9f:57:12:b0:c0:14:
                    41:26:9a:b9:12:e0:47:f1:3f:3c:3b:44:67:85:a6:
                    9b:81:60:9b:80
                ASN1 OID: prime256v1
                NIST CURVE: P-256
    Signature Algorithm: ecdsa-with-SHA256
    Signature Value:
        30:44:02:20:27:d5:75:a4:da:71:25:cf:de:f5:d1:55:86:9a:
        fc:3c:f7:a5:3a:f7:bf:a6:e7:d0:2e:e5:67:8b:ad:69:c8:aa:
        02:20:13:d8:a1:94:5e:97:de:49:c1:ed:b0:04:41:1e:87:7e:
        b4:db:34:a0:d7:50:1d:bf:a0:30:51:70:42:04:ac:b2
-----BEGIN CERTIFICATE-----
MIICCDCCAa8CAhAIMAoGCCqGSM49BAMCMFUxCzAJBgNVBAYTAkNIMQ8wDQYDVQQI
DAZHZW5ldmExDDAKBgNVBAoMA1dITzEPMA0GA1UECwwGVE5HX1RBMRYwFAYDVQQD
DA1XSE8gVE5HX1RBIENBMB4XDTIzMDcwNzE3MTgxNVoXDTI0MDcxNjE3MTgxNVow
gcoxCzAJBgNVBAYTAkVTMRAwDgYDVQQIDAdFc3BhRjFhMQ8wDQYDVQQHDAZNYWRy
aWQxHjAcBgNVBAoMFU1pbmlzdGVyaW8gZGUgU2FuaWRhZDEOMAwGA1UECwwFU0dJ
VFMxPzA9BgNVBAMMNlBSVUVCQVNfU0VMTE9fTUlOSVNURVJJT19TQU5JREFEX0NF
UlRJRklDQUNJT05fQ09WSUQxOTEnMCUGCSqGSIb3DQEJARYYc29wb3J0ZXNpc3Rl
bWFzQG1zY2JzLmVzMFkwEwYHKoZIzj0CAQYIKoZIzj0DAQcDQgAEx7PrnCQjlEfj
OmCaFRGn0uJgRK1L8WOxBr18i6qcBATg4WQ/K0+fVxKwwBRBJpq5EuBH8T88O0Rn
haabgWCbgDAKBggqhkjOPQQDAgNHADBEAiAn1XWk2nElz9710VWGmvw896U697+m
59Au5WeLrWnIqgIgE9ihlF6X3knB7bAEQR6HfrTbNKDXUB2/oDBRcEIErLI=
-----END CERTIFICATE-----
