Certificate:
    Data:
        Version: 1 (0x0)
        Serial Number: 4101 (0x1005)
        Signature Algorithm: ecdsa-with-SHA256
        Issuer: C=CH, ST=Geneva, O=WHO, OU=TNG_TA, CN=WHO TNG_TA CA
        Validity
            Not Before: Jul  7 17:18:14 2023 GMT
            Not After : Jul 16 17:18:14 2024 GMT
        Subject: C=ES, O=ENTIDADA S.L., OU=SELLO ELECTRONICO, OU=E12345678, OU=SUBDIRECCION X, CN=PLATAFORMA DE VALIDACION Y FIRMA ELECTRONICA
        Subject Public Key Info:
            Public Key Algorithm: id-ecPublicKey
                Public-Key: (256 bit)
                pub:
                    04:c7:b3:eb:9c:24:23:94:47:e3:3a:60:9a:15:11:
                    a7:d2:e2:60:44:ad:4b:f1:63:b1:06:bd:7c:8b:aa:
                    9c:04:04:e0:e1:64:3f:2b:4f:9f:57:12:b0:c0:14:
                    41:26:9a:b9:12:e0:47:f1:3f:3c:3b:44:67:85:a6:
                    9b:81:60:9b:80
                ASN1 OID: prime256v1
                NIST CURVE: P-256
    Signature Algorithm: ecdsa-with-SHA256
    Signature Value:
        30:45:02:21:00:c1:df:97:eb:42:cb:fa:f2:6d:a8:a9:64:fa:
        6e:4f:a7:2d:8a:ce:55:99:aa:49:55:93:6c:0e:31:3d:55:15:
        e1:02:20:72:6b:63:c0:d7:ee:eb:93:09:ec:a3:d1:2f:a0:74:
        ef:fe:e6:bb:66:24:56:c2:d9:6f:72:be:70:95:25:51:37
-----BEGIN CERTIFICATE-----
MIIB5DCCAYoCAhAFMAoGCCqGSM49BAMCMFUxCzAJBgNVBAYTAkNIMQ8wDQYDVQQI
DAZHZW5ldmExDDAKBgNVBAoMA1dITzEPMA0GA1UECwwGVE5HX1RBMRYwFAYDVQQD
DA1XSE8gVE5HX1RBIENBMB4XDTIzMDcwNzE3MTgxNFoXDTI0MDcxNjE3MTgxNFow
gaUxCzAJBgNVBAYTAkVTMRYwFAYDVQQKDA1FTlRJREFEQSBTLkwuMRowGAYDVQQL
DBFTRUxMTyBFTEVDVFJPTklDTzESMBAGA1UECwwJRTEyMzQ1Njc4MRcwFQYDVQQL
DA5TVUJESVJFQ0NJT04gWDE1MDMGA1UEAwwsUExBVEFGT1JNQSBERSBWQUxJREFD
SU9OIFkgRklSTUEgRUxFQ1RST05JQ0EwWTATBgcqhkjOPQIBBggqhkjOPQMBBwNC
AATHs+ucJCOUR+M6YJoVEafS4mBErUvxY7EGvXyLqpwEBODhZD8rT59XErDAFEEm
mrkS4EfxPzw7RGeFppuBYJuAMAoGCCqGSM49BAMCA0gAMEUCIQDB35frQsv68m2o
qWT6bk+nLYrOVZmqSVWTbA4xPVUV4QIgcmtjwNfu65MJ7KPRL6B07/7mu2YkVsLZ
b3K+cJUlUTc=
-----END CERTIFICATE-----
