Certificate:
    Data:
        Version: 1 (0x0)
        Serial Number: 4117 (0x1015)
        Signature Algorithm: ecdsa-with-SHA256
        Issuer: C=CH, ST=Geneva, O=WHO, OU=TNG_TA, CN=WHO TNG_TA CA
        Validity
            Not Before: Jul  7 17:18:15 2023 GMT
            Not After : Jul 16 17:18:15 2024 GMT
        Subject: C=LV, O=NacionC481lais VeselC4ABbas dienests, OU=TLS, CN=TLS DGC LV 002
        Subject Public Key Info:
            Public Key Algorithm: id-ecPublicKey
                Public-Key: (256 bit)
                pub:
                    04:c7:b3:eb:9c:24:23:94:47:e3:3a:60:9a:15:11:
                    a7:d2:e2:60:44:ad:4b:f1:63:b1:06:bd:7c:8b:aa:
                    9c:04:04:e0:e1:64:3f:2b:4f:9f:57:12:b0:c0:14:
                    41:26:9a:b9:12:e0:47:f1:3f:3c:3b:44:67:85:a6:
                    9b:81:60:9b:80
                ASN1 OID: prime256v1
                NIST CURVE: P-256
    Signature Algorithm: ecdsa-with-SHA256
    Signature Value:
        30:44:02:20:18:b6:4c:99:93:3b:9e:f7:34:52:6f:6f:20:23:
        70:11:77:82:b5:1a:f0:68:b6:42:f2:04:5f:8d:79:69:56:51:
        02:20:75:a0:09:f2:b8:3d:f5:ea:82:0a:72:70:a8:93:a7:3c:
        f7:75:f1:21:85:29:9d:67:3a:4c:97:d3:37:91:04:44
-----BEGIN CERTIFICATE-----
MIIBoDCCAUcCAhAVMAoGCCqGSM49BAMCMFUxCzAJBgNVBAYTAkNIMQ8wDQYDVQQI
DAZHZW5ldmExDDAKBgNVBAoMA1dITzEPMA0GA1UECwwGVE5HX1RBMRYwFAYDVQQD
DA1XSE8gVE5HX1RBIENBMB4XDTIzMDcwNzE3MTgxNVoXDTI0MDcxNjE3MTgxNVow
YzELMAkGA1UEBhMCTFYxLTArBgNVBAoMJE5hY2lvbkM0ODFsYWlzIFZlc2VsQzRB
QmJhcyBkaWVuZXN0czEMMAoGA1UECwwDVExTMRcwFQYDVQQDDA5UTFMgREdDIExW
IDAwMjBZMBMGByqGSM49AgEGCCqGSM49AwEHA0IABMez65wkI5RH4zpgmhURp9Li
YEStS/FjsQa9fIuqnAQE4OFkPytPn1cSsMAUQSaauRLgR/E/PDtEZ4Wmm4Fgm4Aw
CgYIKoZIzj0EAwIDRwAwRAIgGLZMmZM7nvc0Um9vICNwEXeCtRrwaLZC8gRfjXlp
VlECIHWgCfK4PfXqggpycKiTpzz3dfEhhSmdZzpMl9M3kQRE
-----END CERTIFICATE-----
