Certificate:
    Data:
        Version: 1 (0x0)
        Serial Number: 4106 (0x100a)
        Signature Algorithm: ecdsa-with-SHA256
        Issuer: C=CH, ST=Geneva, O=WHO, OU=TNG_TA, CN=WHO TNG_TA CA
        Validity
            Not Before: Jul  7 10:11:29 2023 GMT
            Not After : Jul 16 10:11:29 2024 GMT
        Subject: C=LV, O=NacionC481lais VeselC4ABbas dienests, OU=TLS, CN=TLS DGC LV 002
        Subject Public Key Info:
            Public Key Algorithm: id-ecPublicKey
                Public-Key: (256 bit)
                pub:
                    04:c7:b3:eb:9c:24:23:94:47:e3:3a:60:9a:15:11:
                    a7:d2:e2:60:44:ad:4b:f1:63:b1:06:bd:7c:8b:aa:
                    9c:04:04:e0:e1:64:3f:2b:4f:9f:57:12:b0:c0:14:
                    41:26:9a:b9:12:e0:47:f1:3f:3c:3b:44:67:85:a6:
                    9b:81:60:9b:80
                ASN1 OID: prime256v1
                NIST CURVE: P-256
    Signature Algorithm: ecdsa-with-SHA256
    Signature Value:
        30:45:02:21:00:b5:ef:bc:d6:4c:63:7c:db:a8:f5:82:a2:e0:
        32:76:d9:03:c0:b8:21:bf:09:1b:bc:df:2d:d2:a2:b3:00:ef:
        31:02:20:79:0c:39:6d:fe:bb:32:54:e5:7c:44:de:f0:0d:43:
        39:96:b7:3b:8b:96:10:c1:35:2f:54:d8:dd:f9:c2:bb:be
-----BEGIN CERTIFICATE-----
MIIBoTCCAUcCAhAKMAoGCCqGSM49BAMCMFUxCzAJBgNVBAYTAkNIMQ8wDQYDVQQI
DAZHZW5ldmExDDAKBgNVBAoMA1dITzEPMA0GA1UECwwGVE5HX1RBMRYwFAYDVQQD
DA1XSE8gVE5HX1RBIENBMB4XDTIzMDcwNzEwMTEyOVoXDTI0MDcxNjEwMTEyOVow
YzELMAkGA1UEBhMCTFYxLTArBgNVBAoMJE5hY2lvbkM0ODFsYWlzIFZlc2VsQzRB
QmJhcyBkaWVuZXN0czEMMAoGA1UECwwDVExTMRcwFQYDVQQDDA5UTFMgREdDIExW
IDAwMjBZMBMGByqGSM49AgEGCCqGSM49AwEHA0IABMez65wkI5RH4zpgmhURp9Li
YEStS/FjsQa9fIuqnAQE4OFkPytPn1cSsMAUQSaauRLgR/E/PDtEZ4Wmm4Fgm4Aw
CgYIKoZIzj0EAwIDSAAwRQIhALXvvNZMY3zbqPWCouAydtkDwLghvwkbvN8t0qKz
AO8xAiB5DDlt/rsyVOV8RN7wDUM5lrc7i5YQwTUvVNjd+cK7vg==
-----END CERTIFICATE-----
