Certificate:
    Data:
        Version: 1 (0x0)
        Serial Number: 4118 (0x1016)
        Signature Algorithm: ecdsa-with-SHA256
        Issuer: C=CH, ST=Geneva, O=WHO, OU=TNG_TA, CN=WHO TNG_TA CA
        Validity
            Not Before: Jul  7 17:18:15 2023 GMT
            Not After : Jul 16 17:18:15 2024 GMT
        Subject: C=LV, O=NacionC481lais VeselC4ABbas dienests, OU=TLS, CN=TLS DGC LV 002
        Subject Public Key Info:
            Public Key Algorithm: id-ecPublicKey
                Public-Key: (256 bit)
                pub:
                    04:c7:b3:eb:9c:24:23:94:47:e3:3a:60:9a:15:11:
                    a7:d2:e2:60:44:ad:4b:f1:63:b1:06:bd:7c:8b:aa:
                    9c:04:04:e0:e1:64:3f:2b:4f:9f:57:12:b0:c0:14:
                    41:26:9a:b9:12:e0:47:f1:3f:3c:3b:44:67:85:a6:
                    9b:81:60:9b:80
                ASN1 OID: prime256v1
                NIST CURVE: P-256
    Signature Algorithm: ecdsa-with-SHA256
    Signature Value:
        30:46:02:21:00:89:c5:01:4f:f2:d3:0f:8b:62:9b:f1:a1:9f:
        33:0d:f5:b3:03:ac:d0:62:3d:ac:da:2a:10:7c:5f:2a:66:f4:
        2b:02:21:00:ed:5e:5f:45:7d:1e:99:eb:0d:b9:9a:72:02:83:
        97:1c:bc:f3:a4:6f:04:53:a1:2f:4d:06:25:5e:24:0b:da:4d
-----BEGIN CERTIFICATE-----
MIIBojCCAUcCAhAWMAoGCCqGSM49BAMCMFUxCzAJBgNVBAYTAkNIMQ8wDQYDVQQI
DAZHZW5ldmExDDAKBgNVBAoMA1dITzEPMA0GA1UECwwGVE5HX1RBMRYwFAYDVQQD
DA1XSE8gVE5HX1RBIENBMB4XDTIzMDcwNzE3MTgxNVoXDTI0MDcxNjE3MTgxNVow
YzELMAkGA1UEBhMCTFYxLTArBgNVBAoMJE5hY2lvbkM0ODFsYWlzIFZlc2VsQzRB
QmJhcyBkaWVuZXN0czEMMAoGA1UECwwDVExTMRcwFQYDVQQDDA5UTFMgREdDIExW
IDAwMjBZMBMGByqGSM49AgEGCCqGSM49AwEHA0IABMez65wkI5RH4zpgmhURp9Li
YEStS/FjsQa9fIuqnAQE4OFkPytPn1cSsMAUQSaauRLgR/E/PDtEZ4Wmm4Fgm4Aw
CgYIKoZIzj0EAwIDSQAwRgIhAInFAU/y0w+LYpvxoZ8zDfWzA6zQYj2s2ioQfF8q
ZvQrAiEA7V5fRX0emesNuZpyAoOXHLzzpG8EU6EvTQYlXiQL2k0=
-----END CERTIFICATE-----
