Certificate:
    Data:
        Version: 1 (0x0)
        Serial Number: 4105 (0x1009)
        Signature Algorithm: ecdsa-with-SHA256
        Issuer: C=CH, ST=Geneva, O=WHO, OU=TNG_TA, CN=WHO TNG_TA CA
        Validity
            Not Before: Jul  7 10:11:29 2023 GMT
            Not After : Jul 16 10:11:29 2024 GMT
        Subject: C=LV, O=NacionC481lais VeselC4ABbas dienests, OU=TLS, CN=TLS DGC LV 002
        Subject Public Key Info:
            Public Key Algorithm: id-ecPublicKey
                Public-Key: (256 bit)
                pub:
                    04:c7:b3:eb:9c:24:23:94:47:e3:3a:60:9a:15:11:
                    a7:d2:e2:60:44:ad:4b:f1:63:b1:06:bd:7c:8b:aa:
                    9c:04:04:e0:e1:64:3f:2b:4f:9f:57:12:b0:c0:14:
                    41:26:9a:b9:12:e0:47:f1:3f:3c:3b:44:67:85:a6:
                    9b:81:60:9b:80
                ASN1 OID: prime256v1
                NIST CURVE: P-256
    Signature Algorithm: ecdsa-with-SHA256
    Signature Value:
        30:46:02:21:00:be:e1:6e:38:86:d2:42:5e:f0:5b:2d:04:b6:
        31:c0:4d:10:10:88:63:47:88:68:0d:7f:54:af:1d:32:d2:b1:
        95:02:21:00:c6:56:cc:e6:fb:67:53:6b:28:88:14:9d:25:c3:
        86:88:fe:df:3d:4e:67:06:80:23:ef:af:a3:53:41:d4:54:e3
-----BEGIN CERTIFICATE-----
MIIBojCCAUcCAhAJMAoGCCqGSM49BAMCMFUxCzAJBgNVBAYTAkNIMQ8wDQYDVQQI
DAZHZW5ldmExDDAKBgNVBAoMA1dITzEPMA0GA1UECwwGVE5HX1RBMRYwFAYDVQQD
DA1XSE8gVE5HX1RBIENBMB4XDTIzMDcwNzEwMTEyOVoXDTI0MDcxNjEwMTEyOVow
YzELMAkGA1UEBhMCTFYxLTArBgNVBAoMJE5hY2lvbkM0ODFsYWlzIFZlc2VsQzRB
QmJhcyBkaWVuZXN0czEMMAoGA1UECwwDVExTMRcwFQYDVQQDDA5UTFMgREdDIExW
IDAwMjBZMBMGByqGSM49AgEGCCqGSM49AwEHA0IABMez65wkI5RH4zpgmhURp9Li
YEStS/FjsQa9fIuqnAQE4OFkPytPn1cSsMAUQSaauRLgR/E/PDtEZ4Wmm4Fgm4Aw
CgYIKoZIzj0EAwIDSQAwRgIhAL7hbjiG0kJe8FstBLYxwE0QEIhjR4hoDX9Urx0y
0rGVAiEAxlbM5vtnU2soiBSdJcOGiP7fPU5nBoAj76+jU0HUVOM=
-----END CERTIFICATE-----
