Certificate:
    Data:
        Version: 1 (0x0)
        Serial Number: 4115 (0x1013)
        Signature Algorithm: ecdsa-with-SHA256
        Issuer: C=CH, ST=Geneva, O=WHO, OU=TNG_TA, CN=WHO TNG_TA CA
        Validity
            Not Before: Jul  7 17:18:15 2023 GMT
            Not After : Jul 16 17:18:15 2024 GMT
        Subject: C=HR, ST=ZG, L=Zagreb, O=AKD d.o.o., OU=ICTInfrastructure, CN=ACC-Croatia_NBTLS_2023
        Subject Public Key Info:
            Public Key Algorithm: id-ecPublicKey
                Public-Key: (256 bit)
                pub:
                    04:c7:b3:eb:9c:24:23:94:47:e3:3a:60:9a:15:11:
                    a7:d2:e2:60:44:ad:4b:f1:63:b1:06:bd:7c:8b:aa:
                    9c:04:04:e0:e1:64:3f:2b:4f:9f:57:12:b0:c0:14:
                    41:26:9a:b9:12:e0:47:f1:3f:3c:3b:44:67:85:a6:
                    9b:81:60:9b:80
                ASN1 OID: prime256v1
                NIST CURVE: P-256
    Signature Algorithm: ecdsa-with-SHA256
    Signature Value:
        30:45:02:20:65:fa:b3:57:08:53:84:40:14:65:9d:d1:33:af:
        c3:17:3c:dd:68:cd:3e:4d:4b:78:ac:db:71:fa:11:9b:e9:e0:
        02:21:00:eb:0d:24:37:38:8d:cd:ac:c9:92:f9:39:7e:12:8e:
        9a:83:e9:5d:fd:ea:1f:ca:e2:43:e0:a9:9d:16:44:c4:9a
-----BEGIN CERTIFICATE-----
MIIBuzCCAWECAhATMAoGCCqGSM49BAMCMFUxCzAJBgNVBAYTAkNIMQ8wDQYDVQQI
DAZHZW5ldmExDDAKBgNVBAoMA1dITzEPMA0GA1UECwwGVE5HX1RBMRYwFAYDVQQD
DA1XSE8gVE5HX1RBIENBMB4XDTIzMDcwNzE3MTgxNVoXDTI0MDcxNjE3MTgxNVow
fTELMAkGA1UEBhMCSFIxCzAJBgNVBAgMAlpHMQ8wDQYDVQQHDAZaYWdyZWIxEzAR
BgNVBAoMCkFLRCBkLm8uby4xGjAYBgNVBAsMEUlDVEluZnJhc3RydWN0dXJlMR8w
HQYDVQQDDBZBQ0MtQ3JvYXRpYV9OQlRMU18yMDIzMFkwEwYHKoZIzj0CAQYIKoZI
zj0DAQcDQgAEx7PrnCQjlEfjOmCaFRGn0uJgRK1L8WOxBr18i6qcBATg4WQ/K0+f
VxKwwBRBJpq5EuBH8T88O0RnhaabgWCbgDAKBggqhkjOPQQDAgNIADBFAiBl+rNX
CFOEQBRlndEzr8MXPN1ozT5NS3is23H6EZvp4AIhAOsNJDc4jc2syZL5OX4SjpqD
6V396h/K4kPgqZ0WRMSa
-----END CERTIFICATE-----
