Certificate:
    Data:
        Version: 1 (0x0)
        Serial Number: 4114 (0x1012)
        Signature Algorithm: ecdsa-with-SHA256
        Issuer: C=CH, ST=Geneva, O=WHO, OU=TNG_TA, CN=WHO TNG_TA CA
        Validity
            Not Before: Jul  7 17:18:15 2023 GMT
            Not After : Jul 16 17:18:15 2024 GMT
        Subject: C=HR, ST=ZG, L=Zagreb, O=AKD d.o.o., OU=ICTInfrastructure, CN=ACC-Croatia_NBTLS_2023
        Subject Public Key Info:
            Public Key Algorithm: id-ecPublicKey
                Public-Key: (256 bit)
                pub:
                    04:c7:b3:eb:9c:24:23:94:47:e3:3a:60:9a:15:11:
                    a7:d2:e2:60:44:ad:4b:f1:63:b1:06:bd:7c:8b:aa:
                    9c:04:04:e0:e1:64:3f:2b:4f:9f:57:12:b0:c0:14:
                    41:26:9a:b9:12:e0:47:f1:3f:3c:3b:44:67:85:a6:
                    9b:81:60:9b:80
                ASN1 OID: prime256v1
                NIST CURVE: P-256
    Signature Algorithm: ecdsa-with-SHA256
    Signature Value:
        30:44:02:20:4a:d1:fb:6b:d2:b2:d9:d5:38:6b:92:22:a4:14:
        ff:ed:27:a6:dc:4e:1f:b0:c0:40:e0:3c:4c:c5:7a:5b:9d:8d:
        02:20:04:8b:ce:d2:5d:5b:4b:d0:87:78:f4:26:b5:46:12:49:
        33:43:d3:ca:ca:7e:ac:69:e4:f1:fe:2d:ed:73:aa:75
-----BEGIN CERTIFICATE-----
MIIBujCCAWECAhASMAoGCCqGSM49BAMCMFUxCzAJBgNVBAYTAkNIMQ8wDQYDVQQI
DAZHZW5ldmExDDAKBgNVBAoMA1dITzEPMA0GA1UECwwGVE5HX1RBMRYwFAYDVQQD
DA1XSE8gVE5HX1RBIENBMB4XDTIzMDcwNzE3MTgxNVoXDTI0MDcxNjE3MTgxNVow
fTELMAkGA1UEBhMCSFIxCzAJBgNVBAgMAlpHMQ8wDQYDVQQHDAZaYWdyZWIxEzAR
BgNVBAoMCkFLRCBkLm8uby4xGjAYBgNVBAsMEUlDVEluZnJhc3RydWN0dXJlMR8w
HQYDVQQDDBZBQ0MtQ3JvYXRpYV9OQlRMU18yMDIzMFkwEwYHKoZIzj0CAQYIKoZI
zj0DAQcDQgAEx7PrnCQjlEfjOmCaFRGn0uJgRK1L8WOxBr18i6qcBATg4WQ/K0+f
VxKwwBRBJpq5EuBH8T88O0RnhaabgWCbgDAKBggqhkjOPQQDAgNHADBEAiBK0ftr
0rLZ1ThrkiKkFP/tJ6bcTh+wwEDgPEzFeludjQIgBIvO0l1bS9CHePQmtUYSSTND
08rKfqxp5PH+Le1zqnU=
-----END CERTIFICATE-----
