Certificate:
    Data:
        Version: 1 (0x0)
        Serial Number: 4104 (0x1008)
        Signature Algorithm: ecdsa-with-SHA256
        Issuer: C=CH, ST=Geneva, O=WHO, OU=TNG_TA, CN=WHO TNG_TA CA
        Validity
            Not Before: Jul  7 10:11:29 2023 GMT
            Not After : Jul 16 10:11:29 2024 GMT
        Subject: C=HR, ST=ZG, L=Zagreb, O=AKD d.o.o., OU=ICTInfrastructure, CN=ACC-Croatia_NBTLS_2023
        Subject Public Key Info:
            Public Key Algorithm: id-ecPublicKey
                Public-Key: (256 bit)
                pub:
                    04:c7:b3:eb:9c:24:23:94:47:e3:3a:60:9a:15:11:
                    a7:d2:e2:60:44:ad:4b:f1:63:b1:06:bd:7c:8b:aa:
                    9c:04:04:e0:e1:64:3f:2b:4f:9f:57:12:b0:c0:14:
                    41:26:9a:b9:12:e0:47:f1:3f:3c:3b:44:67:85:a6:
                    9b:81:60:9b:80
                ASN1 OID: prime256v1
                NIST CURVE: P-256
    Signature Algorithm: ecdsa-with-SHA256
    Signature Value:
        30:46:02:21:00:a3:34:cc:70:4d:35:65:7d:30:1d:6b:3f:87:
        a6:b4:6d:b6:64:25:54:8f:3e:0c:94:e6:dc:e6:1f:c3:c9:17:
        6a:02:21:00:9f:77:f6:c0:f1:4b:c3:5b:78:ac:f9:c8:09:fc:
        53:fb:01:ae:81:2c:9b:a2:1a:fc:dd:b9:86:f6:5c:5c:d2:92
-----BEGIN CERTIFICATE-----
MIIBvDCCAWECAhAIMAoGCCqGSM49BAMCMFUxCzAJBgNVBAYTAkNIMQ8wDQYDVQQI
DAZHZW5ldmExDDAKBgNVBAoMA1dITzEPMA0GA1UECwwGVE5HX1RBMRYwFAYDVQQD
DA1XSE8gVE5HX1RBIENBMB4XDTIzMDcwNzEwMTEyOVoXDTI0MDcxNjEwMTEyOVow
fTELMAkGA1UEBhMCSFIxCzAJBgNVBAgMAlpHMQ8wDQYDVQQHDAZaYWdyZWIxEzAR
BgNVBAoMCkFLRCBkLm8uby4xGjAYBgNVBAsMEUlDVEluZnJhc3RydWN0dXJlMR8w
HQYDVQQDDBZBQ0MtQ3JvYXRpYV9OQlRMU18yMDIzMFkwEwYHKoZIzj0CAQYIKoZI
zj0DAQcDQgAEx7PrnCQjlEfjOmCaFRGn0uJgRK1L8WOxBr18i6qcBATg4WQ/K0+f
VxKwwBRBJpq5EuBH8T88O0RnhaabgWCbgDAKBggqhkjOPQQDAgNJADBGAiEAozTM
cE01ZX0wHWs/h6a0bbZkJVSPPgyU5tzmH8PJF2oCIQCfd/bA8UvDW3is+cgJ/FP7
Aa6BLJuiGvzduYb2XFzSkg==
-----END CERTIFICATE-----
