Certificate:
    Data:
        Version: 1 (0x0)
        Serial Number: 4102 (0x1006)
        Signature Algorithm: ecdsa-with-SHA256
        Issuer: C=CH, ST=Geneva, O=WHO, OU=TNG_TA, CN=WHO TNG_TA CA
        Validity
            Not Before: Jul  7 17:18:14 2023 GMT
            Not After : Jul 16 17:18:14 2024 GMT
        Subject: CN=Ministerio de Sanidad y Consumo
        Subject Public Key Info:
            Public Key Algorithm: id-ecPublicKey
                Public-Key: (256 bit)
                pub:
                    04:c7:b3:eb:9c:24:23:94:47:e3:3a:60:9a:15:11:
                    a7:d2:e2:60:44:ad:4b:f1:63:b1:06:bd:7c:8b:aa:
                    9c:04:04:e0:e1:64:3f:2b:4f:9f:57:12:b0:c0:14:
                    41:26:9a:b9:12:e0:47:f1:3f:3c:3b:44:67:85:a6:
                    9b:81:60:9b:80
                ASN1 OID: prime256v1
                NIST CURVE: P-256
    Signature Algorithm: ecdsa-with-SHA256
    Signature Value:
        30:45:02:20:5e:9d:40:69:87:59:1a:2a:74:b1:5d:cc:eb:20:
        9e:f1:31:ec:d3:41:56:ab:d1:a2:33:c5:80:69:83:90:ac:f4:
        02:21:00:f0:eb:ca:dc:11:ff:7b:ae:ef:bf:cf:8f:21:3f:f2:
        03:84:af:61:64:bb:55:a4:38:6e:07:40:89:de:fa:09:36
-----BEGIN CERTIFICATE-----
MIIBaDCCAQ4CAhAGMAoGCCqGSM49BAMCMFUxCzAJBgNVBAYTAkNIMQ8wDQYDVQQI
DAZHZW5ldmExDDAKBgNVBAoMA1dITzEPMA0GA1UECwwGVE5HX1RBMRYwFAYDVQQD
DA1XSE8gVE5HX1RBIENBMB4XDTIzMDcwNzE3MTgxNFoXDTI0MDcxNjE3MTgxNFow
KjEoMCYGA1UEAwwfTWluaXN0ZXJpbyBkZSBTYW5pZGFkIHkgQ29uc3VtbzBZMBMG
ByqGSM49AgEGCCqGSM49AwEHA0IABMez65wkI5RH4zpgmhURp9LiYEStS/FjsQa9
fIuqnAQE4OFkPytPn1cSsMAUQSaauRLgR/E/PDtEZ4Wmm4Fgm4AwCgYIKoZIzj0E
AwIDSAAwRQIgXp1AaYdZGip0sV3M6yCe8THs00FWq9GiM8WAaYOQrPQCIQDw68rc
Ef97ru+/z48hP/IDhK9hZLtVpDhuB0CJ3voJNg==
-----END CERTIFICATE-----
