Certificate:
    Data:
        Version: 1 (0x0)
        Serial Number: 4103 (0x1007)
        Signature Algorithm: ecdsa-with-SHA256
        Issuer: C=CH, ST=Geneva, O=WHO, OU=TNG_TA, CN=WHO TNG_TA CA
        Validity
            Not Before: Jul  7 17:18:14 2023 GMT
            Not After : Jul 16 17:18:14 2024 GMT
        Subject: C=ES, ST=Madrid, L=Madrid, O=Ministerio de Sanidad, OU=SGITS, CN=PRUEBAS_MINISTERIO_SANIDAD_COVID19/emailAddress=soportesistemas@mscbs.es
        Subject Public Key Info:
            Public Key Algorithm: id-ecPublicKey
                Public-Key: (256 bit)
                pub:
                    04:c7:b3:eb:9c:24:23:94:47:e3:3a:60:9a:15:11:
                    a7:d2:e2:60:44:ad:4b:f1:63:b1:06:bd:7c:8b:aa:
                    9c:04:04:e0:e1:64:3f:2b:4f:9f:57:12:b0:c0:14:
                    41:26:9a:b9:12:e0:47:f1:3f:3c:3b:44:67:85:a6:
                    9b:81:60:9b:80
                ASN1 OID: prime256v1
                NIST CURVE: P-256
    Signature Algorithm: ecdsa-with-SHA256
    Signature Value:
        30:46:02:21:00:b5:c3:77:db:30:19:89:d9:06:10:ce:41:0c:
        59:20:06:ae:c5:05:41:81:72:30:d4:c6:ad:64:7c:9d:40:4e:
        0e:02:21:00:f2:0c:40:fb:9b:1d:dc:e9:f8:60:08:47:16:20:
        57:d8:68:b2:41:c2:00:f0:c8:9c:41:08:28:a6:f5:e9:3e:9b
-----BEGIN CERTIFICATE-----
MIIB9TCCAZoCAhAHMAoGCCqGSM49BAMCMFUxCzAJBgNVBAYTAkNIMQ8wDQYDVQQI
DAZHZW5ldmExDDAKBgNVBAoMA1dITzEPMA0GA1UECwwGVE5HX1RBMRYwFAYDVQQD
DA1XSE8gVE5HX1RBIENBMB4XDTIzMDcwNzE3MTgxNFoXDTI0MDcxNjE3MTgxNFow
gbUxCzAJBgNVBAYTAkVTMQ8wDQYDVQQIDAZNYWRyaWQxDzANBgNVBAcMBk1hZHJp
ZDEeMBwGA1UECgwVTWluaXN0ZXJpbyBkZSBTYW5pZGFkMQ4wDAYDVQQLDAVTR0lU
UzErMCkGA1UEAwwiUFJVRUJBU19NSU5JU1RFUklPX1NBTklEQURfQ09WSUQxOTEn
MCUGCSqGSIb3DQEJARYYc29wb3J0ZXNpc3RlbWFzQG1zY2JzLmVzMFkwEwYHKoZI
zj0CAQYIKoZIzj0DAQcDQgAEx7PrnCQjlEfjOmCaFRGn0uJgRK1L8WOxBr18i6qc
BATg4WQ/K0+fVxKwwBRBJpq5EuBH8T88O0RnhaabgWCbgDAKBggqhkjOPQQDAgNJ
ADBGAiEAtcN32zAZidkGEM5BDFkgBq7FBUGBcjDUxq1kfJ1ATg4CIQDyDED7mx3c
6fhgCEcWIFfYaLJBwgDwyJxBCCim9ek+mw==
-----END CERTIFICATE-----
