Certificate:
    Data:
        Version: 1 (0x0)
        Serial Number: 4101 (0x1005)
        Signature Algorithm: ecdsa-with-SHA256
        Issuer: C=CH, ST=Geneva, O=WHO, OU=TNG_TA, CN=WHO TNG_TA CA
        Validity
            Not Before: Jul  7 10:11:28 2023 GMT
            Not After : Jul 16 10:11:28 2024 GMT
        Subject: CN=Ministerio de Sanidad y Consumo
        Subject Public Key Info:
            Public Key Algorithm: id-ecPublicKey
                Public-Key: (256 bit)
                pub:
                    04:c7:b3:eb:9c:24:23:94:47:e3:3a:60:9a:15:11:
                    a7:d2:e2:60:44:ad:4b:f1:63:b1:06:bd:7c:8b:aa:
                    9c:04:04:e0:e1:64:3f:2b:4f:9f:57:12:b0:c0:14:
                    41:26:9a:b9:12:e0:47:f1:3f:3c:3b:44:67:85:a6:
                    9b:81:60:9b:80
                ASN1 OID: prime256v1
                NIST CURVE: P-256
    Signature Algorithm: ecdsa-with-SHA256
    Signature Value:
        30:46:02:21:00:f8:12:f2:51:80:34:6d:d9:ce:17:2a:63:6a:
        94:24:e2:62:6f:a8:a9:5e:35:b0:a5:0e:8d:db:bf:fb:f6:61:
        e2:02:21:00:a1:6d:97:9f:8a:a7:a4:e7:1a:7e:58:6b:3d:28:
        4a:bf:5d:d3:1b:ce:f3:40:ad:30:d9:67:81:57:a2:d1:15:6b
-----BEGIN CERTIFICATE-----
MIIBaTCCAQ4CAhAFMAoGCCqGSM49BAMCMFUxCzAJBgNVBAYTAkNIMQ8wDQYDVQQI
DAZHZW5ldmExDDAKBgNVBAoMA1dITzEPMA0GA1UECwwGVE5HX1RBMRYwFAYDVQQD
DA1XSE8gVE5HX1RBIENBMB4XDTIzMDcwNzEwMTEyOFoXDTI0MDcxNjEwMTEyOFow
KjEoMCYGA1UEAwwfTWluaXN0ZXJpbyBkZSBTYW5pZGFkIHkgQ29uc3VtbzBZMBMG
ByqGSM49AgEGCCqGSM49AwEHA0IABMez65wkI5RH4zpgmhURp9LiYEStS/FjsQa9
fIuqnAQE4OFkPytPn1cSsMAUQSaauRLgR/E/PDtEZ4Wmm4Fgm4AwCgYIKoZIzj0E
AwIDSQAwRgIhAPgS8lGANG3ZzhcqY2qUJOJib6ipXjWwpQ6N27/79mHiAiEAoW2X
n4qnpOcaflhrPShKv13TG87zQK0w2WeBV6LRFWs=
-----END CERTIFICATE-----
