Certificate:
    Data:
        Version: 1 (0x0)
        Serial Number: 4120 (0x1018)
        Signature Algorithm: ecdsa-with-SHA256
        Issuer: C=CH, ST=Geneva, O=WHO, OU=TNG_TA, CN=WHO TNG_TA CA
        Validity
            Not Before: Jul  7 17:18:15 2023 GMT
            Not After : Jul 16 17:18:15 2024 GMT
        Subject: C=BM, O=QuoVadis Limited, CN=QuoVadis Root CA 2 G3
        Subject Public Key Info:
            Public Key Algorithm: id-ecPublicKey
                Public-Key: (256 bit)
                pub:
                    04:c7:b3:eb:9c:24:23:94:47:e3:3a:60:9a:15:11:
                    a7:d2:e2:60:44:ad:4b:f1:63:b1:06:bd:7c:8b:aa:
                    9c:04:04:e0:e1:64:3f:2b:4f:9f:57:12:b0:c0:14:
                    41:26:9a:b9:12:e0:47:f1:3f:3c:3b:44:67:85:a6:
                    9b:81:60:9b:80
                ASN1 OID: prime256v1
                NIST CURVE: P-256
    Signature Algorithm: ecdsa-with-SHA256
    Signature Value:
        30:46:02:21:00:b0:71:bd:ba:ce:44:cf:fe:5a:6a:7e:7f:3f:
        11:69:18:5a:92:1b:25:84:47:5c:58:f8:44:92:f1:67:a1:e2:
        93:02:21:00:db:cf:ba:9d:d4:dc:5b:71:8f:9b:e6:c4:db:fa:
        76:96:14:85:44:74:7b:e3:73:29:e0:f7:3f:0a:0f:b7:ac:ea
-----BEGIN CERTIFICATE-----
MIIBhzCCASwCAhAYMAoGCCqGSM49BAMCMFUxCzAJBgNVBAYTAkNIMQ8wDQYDVQQI
DAZHZW5ldmExDDAKBgNVBAoMA1dITzEPMA0GA1UECwwGVE5HX1RBMRYwFAYDVQQD
DA1XSE8gVE5HX1RBIENBMB4XDTIzMDcwNzE3MTgxNVoXDTI0MDcxNjE3MTgxNVow
SDELMAkGA1UEBhMCQk0xGTAXBgNVBAoMEFF1b1ZhZGlzIExpbWl0ZWQxHjAcBgNV
BAMMFVF1b1ZhZGlzIFJvb3QgQ0EgMiBHMzBZMBMGByqGSM49AgEGCCqGSM49AwEH
A0IABMez65wkI5RH4zpgmhURp9LiYEStS/FjsQa9fIuqnAQE4OFkPytPn1cSsMAU
QSaauRLgR/E/PDtEZ4Wmm4Fgm4AwCgYIKoZIzj0EAwIDSQAwRgIhALBxvbrORM/+
Wmp+fz8RaRhakhslhEdcWPhEkvFnoeKTAiEA28+6ndTcW3GPm+bE2/p2lhSFRHR7
43Mp4Pc/Cg+3rOo=
-----END CERTIFICATE-----
