Certificate:
    Data:
        Version: 1 (0x0)
        Serial Number: 4137 (0x1029)
        Signature Algorithm: ecdsa-with-SHA256
        Issuer: C=CH, ST=Geneva, O=WHO, OU=TNG_TA, CN=WHO TNG_TA CA
        Validity
            Not Before: Jul  7 17:18:17 2023 GMT
            Not After : Jul 16 17:18:17 2024 GMT
        Subject: C=XX, ST=RYAN TEST COUNTRY, CN=XX/emailAddress=ryan@seldonplan.com
        Subject Public Key Info:
            Public Key Algorithm: id-ecPublicKey
                Public-Key: (256 bit)
                pub:
                    04:c7:b3:eb:9c:24:23:94:47:e3:3a:60:9a:15:11:
                    a7:d2:e2:60:44:ad:4b:f1:63:b1:06:bd:7c:8b:aa:
                    9c:04:04:e0:e1:64:3f:2b:4f:9f:57:12:b0:c0:14:
                    41:26:9a:b9:12:e0:47:f1:3f:3c:3b:44:67:85:a6:
                    9b:81:60:9b:80
                ASN1 OID: prime256v1
                NIST CURVE: P-256
    Signature Algorithm: ecdsa-with-SHA256
    Signature Value:
        30:46:02:21:00:c4:39:24:6a:5c:83:4c:54:a2:e3:02:45:21:
        b0:a4:ed:10:e8:9b:5f:7a:61:6e:1c:ed:56:01:c0:e6:0d:3d:
        6f:02:21:00:a8:63:be:2b:f7:c2:f4:fd:54:a1:2f:fa:17:f2:
        d1:a3:be:ba:61:51:fb:f9:5c:af:14:c4:7f:c3:01:50:3a:b3
-----BEGIN CERTIFICATE-----
MIIBmTCCAT4CAhApMAoGCCqGSM49BAMCMFUxCzAJBgNVBAYTAkNIMQ8wDQYDVQQI
DAZHZW5ldmExDDAKBgNVBAoMA1dITzEPMA0GA1UECwwGVE5HX1RBMRYwFAYDVQQD
DA1XSE8gVE5HX1RBIENBMB4XDTIzMDcwNzE3MTgxN1oXDTI0MDcxNjE3MTgxN1ow
WjELMAkGA1UEBhMCWFgxGjAYBgNVBAgMEVJZQU4gVEVTVCBDT1VOVFJZMQswCQYD
VQQDDAJYWDEiMCAGCSqGSIb3DQEJARYTcnlhbkBzZWxkb25wbGFuLmNvbTBZMBMG
ByqGSM49AgEGCCqGSM49AwEHA0IABMez65wkI5RH4zpgmhURp9LiYEStS/FjsQa9
fIuqnAQE4OFkPytPn1cSsMAUQSaauRLgR/E/PDtEZ4Wmm4Fgm4AwCgYIKoZIzj0E
AwIDSQAwRgIhAMQ5JGpcg0xUouMCRSGwpO0Q6JtfemFuHO1WAcDmDT1vAiEAqGO+
K/fC9P1UoS/6F/LRo766YVH7+VyvFMR/wwFQOrM=
-----END CERTIFICATE-----
