Certificate:
    Data:
        Version: 1 (0x0)
        Serial Number: 4111 (0x100f)
        Signature Algorithm: ecdsa-with-SHA256
        Issuer: C=CH, ST=Geneva, O=WHO, OU=TNG_TA, CN=WHO TNG_TA CA
        Validity
            Not Before: Jul  7 10:11:29 2023 GMT
            Not After : Jul 16 10:11:29 2024 GMT
        Subject: C=XX, ST=RYAN TEST COUNTRY, CN=XX/emailAddress=ryan@seldonplan.com
        Subject Public Key Info:
            Public Key Algorithm: id-ecPublicKey
                Public-Key: (256 bit)
                pub:
                    04:c7:b3:eb:9c:24:23:94:47:e3:3a:60:9a:15:11:
                    a7:d2:e2:60:44:ad:4b:f1:63:b1:06:bd:7c:8b:aa:
                    9c:04:04:e0:e1:64:3f:2b:4f:9f:57:12:b0:c0:14:
                    41:26:9a:b9:12:e0:47:f1:3f:3c:3b:44:67:85:a6:
                    9b:81:60:9b:80
                ASN1 OID: prime256v1
                NIST CURVE: P-256
    Signature Algorithm: ecdsa-with-SHA256
    Signature Value:
        30:46:02:21:00:ae:5b:c3:f0:ed:93:e7:4b:dd:56:6f:2c:0e:
        a2:c8:4d:9c:fe:3f:85:f0:f0:c5:a9:9f:4d:9e:c9:70:20:ff:
        97:02:21:00:ac:ab:e8:5c:93:aa:ad:52:08:18:40:49:d3:62:
        8a:41:82:c2:7f:9b:61:53:ec:26:29:ec:ef:a6:cb:b7:7c:4b
-----BEGIN CERTIFICATE-----
MIIBmTCCAT4CAhAPMAoGCCqGSM49BAMCMFUxCzAJBgNVBAYTAkNIMQ8wDQYDVQQI
DAZHZW5ldmExDDAKBgNVBAoMA1dITzEPMA0GA1UECwwGVE5HX1RBMRYwFAYDVQQD
DA1XSE8gVE5HX1RBIENBMB4XDTIzMDcwNzEwMTEyOVoXDTI0MDcxNjEwMTEyOVow
WjELMAkGA1UEBhMCWFgxGjAYBgNVBAgMEVJZQU4gVEVTVCBDT1VOVFJZMQswCQYD
VQQDDAJYWDEiMCAGCSqGSIb3DQEJARYTcnlhbkBzZWxkb25wbGFuLmNvbTBZMBMG
ByqGSM49AgEGCCqGSM49AwEHA0IABMez65wkI5RH4zpgmhURp9LiYEStS/FjsQa9
fIuqnAQE4OFkPytPn1cSsMAUQSaauRLgR/E/PDtEZ4Wmm4Fgm4AwCgYIKoZIzj0E
AwIDSQAwRgIhAK5bw/Dtk+dL3VZvLA6iyE2c/j+F8PDFqZ9NnslwIP+XAiEArKvo
XJOqrVIIGEBJ02KKQYLCf5thU+wmKezvpsu3fEs=
-----END CERTIFICATE-----
