Certificate:
    Data:
        Version: 1 (0x0)
        Serial Number: 4112 (0x1010)
        Signature Algorithm: ecdsa-with-SHA256
        Issuer: C=CH, ST=Geneva, O=WHO, OU=TNG_TA, CN=WHO TNG_TA CA
        Validity
            Not Before: Jul  7 10:11:29 2023 GMT
            Not After : Jul 16 10:11:29 2024 GMT
        Subject: C=XX, ST=RYAN TEST COUNTRY, CN=XX/emailAddress=ryan@seldonplan.com
        Subject Public Key Info:
            Public Key Algorithm: id-ecPublicKey
                Public-Key: (256 bit)
                pub:
                    04:c7:b3:eb:9c:24:23:94:47:e3:3a:60:9a:15:11:
                    a7:d2:e2:60:44:ad:4b:f1:63:b1:06:bd:7c:8b:aa:
                    9c:04:04:e0:e1:64:3f:2b:4f:9f:57:12:b0:c0:14:
                    41:26:9a:b9:12:e0:47:f1:3f:3c:3b:44:67:85:a6:
                    9b:81:60:9b:80
                ASN1 OID: prime256v1
                NIST CURVE: P-256
    Signature Algorithm: ecdsa-with-SHA256
    Signature Value:
        30:45:02:20:29:af:81:ed:85:6c:49:82:4f:61:d6:5c:03:88:
        19:39:60:19:13:16:90:88:1d:6f:d0:d0:c5:20:57:14:1e:4b:
        02:21:00:ff:c0:c4:05:c1:df:72:60:9d:de:f3:d2:fd:ef:a6:
        83:0d:21:a1:3b:0a:8c:23:e0:08:c3:64:ca:b9:5b:3f:4a
-----BEGIN CERTIFICATE-----
MIIBmDCCAT4CAhAQMAoGCCqGSM49BAMCMFUxCzAJBgNVBAYTAkNIMQ8wDQYDVQQI
DAZHZW5ldmExDDAKBgNVBAoMA1dITzEPMA0GA1UECwwGVE5HX1RBMRYwFAYDVQQD
DA1XSE8gVE5HX1RBIENBMB4XDTIzMDcwNzEwMTEyOVoXDTI0MDcxNjEwMTEyOVow
WjELMAkGA1UEBhMCWFgxGjAYBgNVBAgMEVJZQU4gVEVTVCBDT1VOVFJZMQswCQYD
VQQDDAJYWDEiMCAGCSqGSIb3DQEJARYTcnlhbkBzZWxkb25wbGFuLmNvbTBZMBMG
ByqGSM49AgEGCCqGSM49AwEHA0IABMez65wkI5RH4zpgmhURp9LiYEStS/FjsQa9
fIuqnAQE4OFkPytPn1cSsMAUQSaauRLgR/E/PDtEZ4Wmm4Fgm4AwCgYIKoZIzj0E
AwIDSAAwRQIgKa+B7YVsSYJPYdZcA4gZOWAZExaQiB1v0NDFIFcUHksCIQD/wMQF
wd9yYJ3e89L976aDDSGhOwqMI+AIw2TKuVs/Sg==
-----END CERTIFICATE-----
