Certificate:
    Data:
        Version: 1 (0x0)
        Serial Number: 4105 (0x1009)
        Signature Algorithm: ecdsa-with-SHA256
        Issuer: C=CH, ST=Geneva, O=WHO, OU=TNG_TA, CN=WHO TNG_TA CA
        Validity
            Not Before: Jul  7 17:18:15 2023 GMT
            Not After : Jul 16 17:18:15 2024 GMT
        Subject: C=EE, O=Estonia, OU=Police and Border Guard Board, OU=Test, CN=CSCA_Estonia
        Subject Public Key Info:
            Public Key Algorithm: id-ecPublicKey
                Public-Key: (256 bit)
                pub:
                    04:c7:b3:eb:9c:24:23:94:47:e3:3a:60:9a:15:11:
                    a7:d2:e2:60:44:ad:4b:f1:63:b1:06:bd:7c:8b:aa:
                    9c:04:04:e0:e1:64:3f:2b:4f:9f:57:12:b0:c0:14:
                    41:26:9a:b9:12:e0:47:f1:3f:3c:3b:44:67:85:a6:
                    9b:81:60:9b:80
                ASN1 OID: prime256v1
                NIST CURVE: P-256
    Signature Algorithm: ecdsa-with-SHA256
    Signature Value:
        30:46:02:21:00:8e:7b:72:35:21:02:dd:5f:6a:31:cd:82:d6:
        b7:2d:09:39:e2:cd:32:10:9c:2a:72:10:9d:21:e2:5b:5d:bd:
        fe:02:21:00:cc:31:cb:23:e1:53:ee:20:98:b9:61:87:0a:a6:
        ba:91:55:50:d3:ce:4d:b5:57:ee:cf:f9:a4:8a:a9:a2:64:f9
-----BEGIN CERTIFICATE-----
MIIBrDCCAVECAhAJMAoGCCqGSM49BAMCMFUxCzAJBgNVBAYTAkNIMQ8wDQYDVQQI
DAZHZW5ldmExDDAKBgNVBAoMA1dITzEPMA0GA1UECwwGVE5HX1RBMRYwFAYDVQQD
DA1XSE8gVE5HX1RBIENBMB4XDTIzMDcwNzE3MTgxNVoXDTI0MDcxNjE3MTgxNVow
bTELMAkGA1UEBhMCRUUxEDAOBgNVBAoMB0VzdG9uaWExJjAkBgNVBAsMHVBvbGlj
ZSBhbmQgQm9yZGVyIEd1YXJkIEJvYXJkMQ0wCwYDVQQLDARUZXN0MRUwEwYDVQQD
DAxDU0NBX0VzdG9uaWEwWTATBgcqhkjOPQIBBggqhkjOPQMBBwNCAATHs+ucJCOU
R+M6YJoVEafS4mBErUvxY7EGvXyLqpwEBODhZD8rT59XErDAFEEmmrkS4EfxPzw7
RGeFppuBYJuAMAoGCCqGSM49BAMCA0kAMEYCIQCOe3I1IQLdX2oxzYLWty0JOeLN
MhCcKnIQnSHiW129/gIhAMwxyyPhU+4gmLlhhwqmupFVUNPOTbVX7s/5pIqpomT5
-----END CERTIFICATE-----
