Certificate:
    Data:
        Version: 1 (0x0)
        Serial Number: 4128 (0x1020)
        Signature Algorithm: ecdsa-with-SHA256
        Issuer: C=CH, ST=Geneva, O=WHO, OU=TNG_TA, CN=WHO TNG_TA CA
        Validity
            Not Before: Jul  7 17:18:16 2023 GMT
            Not After : Jul 16 17:18:16 2024 GMT
        Subject: C=XC, CN=client.testcountry.xc/emailAddress=sandhur@who.int
        Subject Public Key Info:
            Public Key Algorithm: id-ecPublicKey
                Public-Key: (256 bit)
                pub:
                    04:c7:b3:eb:9c:24:23:94:47:e3:3a:60:9a:15:11:
                    a7:d2:e2:60:44:ad:4b:f1:63:b1:06:bd:7c:8b:aa:
                    9c:04:04:e0:e1:64:3f:2b:4f:9f:57:12:b0:c0:14:
                    41:26:9a:b9:12:e0:47:f1:3f:3c:3b:44:67:85:a6:
                    9b:81:60:9b:80
                ASN1 OID: prime256v1
                NIST CURVE: P-256
    Signature Algorithm: ecdsa-with-SHA256
    Signature Value:
        30:46:02:21:00:da:39:a2:6b:88:4c:c7:c0:af:86:d0:2c:16:
        4a:43:65:5b:50:8d:7a:5b:98:c6:8a:4e:49:9f:22:69:58:ef:
        14:02:21:00:9a:4d:76:46:c4:50:83:8a:24:54:1a:04:e8:22:
        3a:a7:b0:b2:61:07:1f:5b:db:ec:4a:ed:43:66:7a:06:a6:97
-----BEGIN CERTIFICATE-----
MIIBjDCCATECAhAgMAoGCCqGSM49BAMCMFUxCzAJBgNVBAYTAkNIMQ8wDQYDVQQI
DAZHZW5ldmExDDAKBgNVBAoMA1dITzEPMA0GA1UECwwGVE5HX1RBMRYwFAYDVQQD
DA1XSE8gVE5HX1RBIENBMB4XDTIzMDcwNzE3MTgxNloXDTI0MDcxNjE3MTgxNlow
TTELMAkGA1UEBhMCWEMxHjAcBgNVBAMMFWNsaWVudC50ZXN0Y291bnRyeS54YzEe
MBwGCSqGSIb3DQEJARYPc2FuZGh1ckB3aG8uaW50MFkwEwYHKoZIzj0CAQYIKoZI
zj0DAQcDQgAEx7PrnCQjlEfjOmCaFRGn0uJgRK1L8WOxBr18i6qcBATg4WQ/K0+f
VxKwwBRBJpq5EuBH8T88O0RnhaabgWCbgDAKBggqhkjOPQQDAgNJADBGAiEA2jmi
a4hMx8CvhtAsFkpDZVtQjXpbmMaKTkmfImlY7xQCIQCaTXZGxFCDiiRUGgToIjqn
sLJhBx9b2+xK7UNmegamlw==
-----END CERTIFICATE-----
