Certificate:
    Data:
        Version: 1 (0x0)
        Serial Number: 4127 (0x101f)
        Signature Algorithm: ecdsa-with-SHA256
        Issuer: C=CH, ST=Geneva, O=WHO, OU=TNG_TA, CN=WHO TNG_TA CA
        Validity
            Not Before: Jul  7 17:18:16 2023 GMT
            Not After : Jul 16 17:18:16 2024 GMT
        Subject: C=XC, CN=client.testcountry.xc/emailAddress=sandhur@who.int
        Subject Public Key Info:
            Public Key Algorithm: id-ecPublicKey
                Public-Key: (256 bit)
                pub:
                    04:c7:b3:eb:9c:24:23:94:47:e3:3a:60:9a:15:11:
                    a7:d2:e2:60:44:ad:4b:f1:63:b1:06:bd:7c:8b:aa:
                    9c:04:04:e0:e1:64:3f:2b:4f:9f:57:12:b0:c0:14:
                    41:26:9a:b9:12:e0:47:f1:3f:3c:3b:44:67:85:a6:
                    9b:81:60:9b:80
                ASN1 OID: prime256v1
                NIST CURVE: P-256
    Signature Algorithm: ecdsa-with-SHA256
    Signature Value:
        30:46:02:21:00:bc:f8:bc:91:4a:43:03:4d:f8:e3:8e:47:a2:
        c3:a6:3d:8f:96:2f:77:0a:59:ee:1f:09:87:72:a6:d1:33:9c:
        ff:02:21:00:b3:fc:6e:b2:89:bc:af:3d:c2:86:a5:a8:61:4f:
        45:1f:0b:fa:6a:b3:cd:0b:14:af:f5:b3:86:d3:3d:59:ee:aa
-----BEGIN CERTIFICATE-----
MIIBjDCCATECAhAfMAoGCCqGSM49BAMCMFUxCzAJBgNVBAYTAkNIMQ8wDQYDVQQI
DAZHZW5ldmExDDAKBgNVBAoMA1dITzEPMA0GA1UECwwGVE5HX1RBMRYwFAYDVQQD
DA1XSE8gVE5HX1RBIENBMB4XDTIzMDcwNzE3MTgxNloXDTI0MDcxNjE3MTgxNlow
TTELMAkGA1UEBhMCWEMxHjAcBgNVBAMMFWNsaWVudC50ZXN0Y291bnRyeS54YzEe
MBwGCSqGSIb3DQEJARYPc2FuZGh1ckB3aG8uaW50MFkwEwYHKoZIzj0CAQYIKoZI
zj0DAQcDQgAEx7PrnCQjlEfjOmCaFRGn0uJgRK1L8WOxBr18i6qcBATg4WQ/K0+f
VxKwwBRBJpq5EuBH8T88O0RnhaabgWCbgDAKBggqhkjOPQQDAgNJADBGAiEAvPi8
kUpDA034445HosOmPY+WL3cKWe4fCYdyptEznP8CIQCz/G6yibyvPcKGpahhT0Uf
C/pqs80LFK/1s4bTPVnuqg==
-----END CERTIFICATE-----
