Certificate:
    Data:
        Version: 1 (0x0)
        Serial Number: 4113 (0x1011)
        Signature Algorithm: ecdsa-with-SHA256
        Issuer: C=CH, ST=Geneva, O=WHO, OU=TNG_TA, CN=WHO TNG_TA CA
        Validity
            Not Before: Jul  7 17:18:15 2023 GMT
            Not After : Jul 16 17:18:15 2024 GMT
        Subject: C=HR, O=AKD d.o.o., CN=TEST-DGC-CSCA Croatia
        Subject Public Key Info:
            Public Key Algorithm: id-ecPublicKey
                Public-Key: (256 bit)
                pub:
                    04:c7:b3:eb:9c:24:23:94:47:e3:3a:60:9a:15:11:
                    a7:d2:e2:60:44:ad:4b:f1:63:b1:06:bd:7c:8b:aa:
                    9c:04:04:e0:e1:64:3f:2b:4f:9f:57:12:b0:c0:14:
                    41:26:9a:b9:12:e0:47:f1:3f:3c:3b:44:67:85:a6:
                    9b:81:60:9b:80
                ASN1 OID: prime256v1
                NIST CURVE: P-256
    Signature Algorithm: ecdsa-with-SHA256
    Signature Value:
        30:45:02:21:00:8b:e3:56:07:6c:7b:8f:fe:2b:18:76:16:b7:
        eb:68:08:3e:4c:60:f5:db:56:85:72:d4:6b:a3:37:58:06:50:
        a8:02:20:62:69:80:54:a7:a6:d3:53:d9:4e:55:e6:2b:3e:bc:
        64:70:b3:86:2c:a0:9f:c8:d4:a2:ee:59:9d:16:26:91:9f
-----BEGIN CERTIFICATE-----
MIIBgDCCASYCAhARMAoGCCqGSM49BAMCMFUxCzAJBgNVBAYTAkNIMQ8wDQYDVQQI
DAZHZW5ldmExDDAKBgNVBAoMA1dITzEPMA0GA1UECwwGVE5HX1RBMRYwFAYDVQQD
DA1XSE8gVE5HX1RBIENBMB4XDTIzMDcwNzE3MTgxNVoXDTI0MDcxNjE3MTgxNVow
QjELMAkGA1UEBhMCSFIxEzARBgNVBAoMCkFLRCBkLm8uby4xHjAcBgNVBAMMFVRF
U1QtREdDLUNTQ0EgQ3JvYXRpYTBZMBMGByqGSM49AgEGCCqGSM49AwEHA0IABMez
65wkI5RH4zpgmhURp9LiYEStS/FjsQa9fIuqnAQE4OFkPytPn1cSsMAUQSaauRLg
R/E/PDtEZ4Wmm4Fgm4AwCgYIKoZIzj0EAwIDSAAwRQIhAIvjVgdse4/+Kxh2Frfr
aAg+TGD121aFctRrozdYBlCoAiBiaYBUp6bTU9lOVeYrPrxkcLOGLKCfyNSi7lmd
FiaRnw==
-----END CERTIFICATE-----
