Certificate:
    Data:
        Version: 1 (0x0)
        Serial Number: 4108 (0x100c)
        Signature Algorithm: ecdsa-with-SHA256
        Issuer: C=CH, ST=Geneva, O=WHO, OU=TNG_TA, CN=WHO TNG_TA CA
        Validity
            Not Before: Jul  7 17:18:15 2023 GMT
            Not After : Jul 16 17:18:15 2024 GMT
        Subject: C=EE, ST=Harjumaa, L=Tallinn, O=Health and Welfare Information Systems Center, CN=DGC_NB_UP_TEST_EE_01
        Subject Public Key Info:
            Public Key Algorithm: id-ecPublicKey
                Public-Key: (256 bit)
                pub:
                    04:c7:b3:eb:9c:24:23:94:47:e3:3a:60:9a:15:11:
                    a7:d2:e2:60:44:ad:4b:f1:63:b1:06:bd:7c:8b:aa:
                    9c:04:04:e0:e1:64:3f:2b:4f:9f:57:12:b0:c0:14:
                    41:26:9a:b9:12:e0:47:f1:3f:3c:3b:44:67:85:a6:
                    9b:81:60:9b:80
                ASN1 OID: prime256v1
                NIST CURVE: P-256
    Signature Algorithm: ecdsa-with-SHA256
    Signature Value:
        30:46:02:21:00:9d:b9:c0:57:8b:1f:59:af:d0:cc:53:88:07:
        cf:5c:d1:4c:2e:6a:68:ef:d6:b5:2a:b9:a2:3e:57:dd:ab:84:
        d0:02:21:00:ca:bf:10:54:8c:75:a9:ef:8e:d2:9a:0a:f6:e9:
        f4:b3:05:66:44:85:e5:1b:3b:f2:c2:1b:f8:e0:ed:56:c4:e3
-----BEGIN CERTIFICATE-----
MIIByTCCAW4CAhAMMAoGCCqGSM49BAMCMFUxCzAJBgNVBAYTAkNIMQ8wDQYDVQQI
DAZHZW5ldmExDDAKBgNVBAoMA1dITzEPMA0GA1UECwwGVE5HX1RBMRYwFAYDVQQD
DA1XSE8gVE5HX1RBIENBMB4XDTIzMDcwNzE3MTgxNVoXDTI0MDcxNjE3MTgxNVow
gYkxCzAJBgNVBAYTAkVFMREwDwYDVQQIDAhIYXJqdW1hYTEQMA4GA1UEBwwHVGFs
bGlubjE2MDQGA1UECgwtSGVhbHRoIGFuZCBXZWxmYXJlIEluZm9ybWF0aW9uIFN5
c3RlbXMgQ2VudGVyMR0wGwYDVQQDDBRER0NfTkJfVVBfVEVTVF9FRV8wMTBZMBMG
ByqGSM49AgEGCCqGSM49AwEHA0IABMez65wkI5RH4zpgmhURp9LiYEStS/FjsQa9
fIuqnAQE4OFkPytPn1cSsMAUQSaauRLgR/E/PDtEZ4Wmm4Fgm4AwCgYIKoZIzj0E
AwIDSQAwRgIhAJ25wFeLH1mv0MxTiAfPXNFMLmpo79a1KrmiPlfdq4TQAiEAyr8Q
VIx1qe+O0poK9un0swVmRIXlGzvywhv44O1WxOM=
-----END CERTIFICATE-----
