Certificate:
    Data:
        Version: 1 (0x0)
        Serial Number: 4130 (0x1022)
        Signature Algorithm: ecdsa-with-SHA256
        Issuer: C=CH, ST=Geneva, O=WHO, OU=TNG_TA, CN=WHO TNG_TA CA
        Validity
            Not Before: Jul  7 17:18:16 2023 GMT
            Not After : Jul 16 17:18:16 2024 GMT
        Subject: C=XC, CN=upload.testcountry.xc/emailAddress=sandhur@who.int
        Subject Public Key Info:
            Public Key Algorithm: id-ecPublicKey
                Public-Key: (256 bit)
                pub:
                    04:c7:b3:eb:9c:24:23:94:47:e3:3a:60:9a:15:11:
                    a7:d2:e2:60:44:ad:4b:f1:63:b1:06:bd:7c:8b:aa:
                    9c:04:04:e0:e1:64:3f:2b:4f:9f:57:12:b0:c0:14:
                    41:26:9a:b9:12:e0:47:f1:3f:3c:3b:44:67:85:a6:
                    9b:81:60:9b:80
                ASN1 OID: prime256v1
                NIST CURVE: P-256
    Signature Algorithm: ecdsa-with-SHA256
    Signature Value:
        30:44:02:20:7a:f4:25:c6:bc:f9:65:da:31:b4:5b:a5:27:8e:
        98:0d:a4:ef:eb:9e:a4:95:07:f7:49:a3:dc:ae:62:db:92:72:
        02:20:5a:24:e1:ee:37:ca:ca:aa:44:6a:88:e0:f3:22:b6:53:
        22:fe:8b:4d:bd:24:0b:ac:d1:a2:a0:50:a0:4d:ab:9e
-----BEGIN CERTIFICATE-----
MIIBijCCATECAhAiMAoGCCqGSM49BAMCMFUxCzAJBgNVBAYTAkNIMQ8wDQYDVQQI
DAZHZW5ldmExDDAKBgNVBAoMA1dITzEPMA0GA1UECwwGVE5HX1RBMRYwFAYDVQQD
DA1XSE8gVE5HX1RBIENBMB4XDTIzMDcwNzE3MTgxNloXDTI0MDcxNjE3MTgxNlow
TTELMAkGA1UEBhMCWEMxHjAcBgNVBAMMFXVwbG9hZC50ZXN0Y291bnRyeS54YzEe
MBwGCSqGSIb3DQEJARYPc2FuZGh1ckB3aG8uaW50MFkwEwYHKoZIzj0CAQYIKoZI
zj0DAQcDQgAEx7PrnCQjlEfjOmCaFRGn0uJgRK1L8WOxBr18i6qcBATg4WQ/K0+f
VxKwwBRBJpq5EuBH8T88O0RnhaabgWCbgDAKBggqhkjOPQQDAgNHADBEAiB69CXG
vPll2jG0W6UnjpgNpO/rnqSVB/dJo9yuYtuScgIgWiTh7jfKyqpEaojg8yK2UyL+
i029JAus0aKgUKBNq54=
-----END CERTIFICATE-----
