Certificate:
    Data:
        Version: 1 (0x0)
        Serial Number: 4129 (0x1021)
        Signature Algorithm: ecdsa-with-SHA256
        Issuer: C=CH, ST=Geneva, O=WHO, OU=TNG_TA, CN=WHO TNG_TA CA
        Validity
            Not Before: Jul  7 17:18:16 2023 GMT
            Not After : Jul 16 17:18:16 2024 GMT
        Subject: C=XC, CN=upload.testcountry.xc/emailAddress=sandhur@who.int
        Subject Public Key Info:
            Public Key Algorithm: id-ecPublicKey
                Public-Key: (256 bit)
                pub:
                    04:c7:b3:eb:9c:24:23:94:47:e3:3a:60:9a:15:11:
                    a7:d2:e2:60:44:ad:4b:f1:63:b1:06:bd:7c:8b:aa:
                    9c:04:04:e0:e1:64:3f:2b:4f:9f:57:12:b0:c0:14:
                    41:26:9a:b9:12:e0:47:f1:3f:3c:3b:44:67:85:a6:
                    9b:81:60:9b:80
                ASN1 OID: prime256v1
                NIST CURVE: P-256
    Signature Algorithm: ecdsa-with-SHA256
    Signature Value:
        30:46:02:21:00:b0:23:69:ec:d7:0c:a7:54:fb:a4:f6:40:1d:
        aa:39:7a:73:86:a4:6a:dd:dc:44:6d:a5:2a:2f:fc:2a:3a:1a:
        96:02:21:00:93:bb:6b:99:e0:8f:0f:3c:a5:c3:10:42:58:7b:
        35:dc:e9:e1:eb:54:a8:cc:b2:f2:f9:a7:b2:42:73:d7:46:15
-----BEGIN CERTIFICATE-----
MIIBjDCCATECAhAhMAoGCCqGSM49BAMCMFUxCzAJBgNVBAYTAkNIMQ8wDQYDVQQI
DAZHZW5ldmExDDAKBgNVBAoMA1dITzEPMA0GA1UECwwGVE5HX1RBMRYwFAYDVQQD
DA1XSE8gVE5HX1RBIENBMB4XDTIzMDcwNzE3MTgxNloXDTI0MDcxNjE3MTgxNlow
TTELMAkGA1UEBhMCWEMxHjAcBgNVBAMMFXVwbG9hZC50ZXN0Y291bnRyeS54YzEe
MBwGCSqGSIb3DQEJARYPc2FuZGh1ckB3aG8uaW50MFkwEwYHKoZIzj0CAQYIKoZI
zj0DAQcDQgAEx7PrnCQjlEfjOmCaFRGn0uJgRK1L8WOxBr18i6qcBATg4WQ/K0+f
VxKwwBRBJpq5EuBH8T88O0RnhaabgWCbgDAKBggqhkjOPQQDAgNJADBGAiEAsCNp
7NcMp1T7pPZAHao5enOGpGrd3ERtpSov/Co6GpYCIQCTu2uZ4I8PPKXDEEJYezXc
6eHrVKjMsvL5p7JCc9dGFQ==
-----END CERTIFICATE-----
