Certificate:
    Data:
        Version: 1 (0x0)
        Serial Number: 4100 (0x1004)
        Signature Algorithm: ecdsa-with-SHA256
        Issuer: C=CH, ST=Geneva, O=WHO, OU=TNG_TA, CN=WHO TNG_TA CA
        Validity
            Not Before: Jul  7 17:18:14 2023 GMT
            Not After : Jul 16 17:18:14 2024 GMT
        Subject: C=BE, O=eHealth - Vlaamse Overheid, OU=MAGDA, CN=attestations-msg-acpt.magda.vlaanderen.be/emailAddress=helpdesk.magda@vlaanderen.be
        Subject Public Key Info:
            Public Key Algorithm: id-ecPublicKey
                Public-Key: (256 bit)
                pub:
                    04:c7:b3:eb:9c:24:23:94:47:e3:3a:60:9a:15:11:
                    a7:d2:e2:60:44:ad:4b:f1:63:b1:06:bd:7c:8b:aa:
                    9c:04:04:e0:e1:64:3f:2b:4f:9f:57:12:b0:c0:14:
                    41:26:9a:b9:12:e0:47:f1:3f:3c:3b:44:67:85:a6:
                    9b:81:60:9b:80
                ASN1 OID: prime256v1
                NIST CURVE: P-256
    Signature Algorithm: ecdsa-with-SHA256
    Signature Value:
        30:44:02:20:41:99:d3:ac:ab:a2:26:3e:ad:a2:d8:39:7d:61:
        e2:6f:d8:25:1d:e4:dd:6a:96:0a:12:27:86:87:c0:5a:5f:d2:
        02:20:71:e4:54:4d:43:94:2c:74:dd:72:e5:70:54:a8:d9:8a:
        06:64:73:6f:10:53:f1:71:cf:17:8d:ad:65:d8:50:74
-----BEGIN CERTIFICATE-----
MIIB4TCCAYgCAhAEMAoGCCqGSM49BAMCMFUxCzAJBgNVBAYTAkNIMQ8wDQYDVQQI
DAZHZW5ldmExDDAKBgNVBAoMA1dITzEPMA0GA1UECwwGVE5HX1RBMRYwFAYDVQQD
DA1XSE8gVE5HX1RBIENBMB4XDTIzMDcwNzE3MTgxNFoXDTI0MDcxNjE3MTgxNFow
gaMxCzAJBgNVBAYTAkJFMSMwIQYDVQQKDBplSGVhbHRoIC0gVmxhYW1zZSBPdmVy
aGVpZDEOMAwGA1UECwwFTUFHREExMjAwBgNVBAMMKWF0dGVzdGF0aW9ucy1tc2ct
YWNwdC5tYWdkYS52bGFhbmRlcmVuLmJlMSswKQYJKoZIhvcNAQkBFhxoZWxwZGVz
ay5tYWdkYUB2bGFhbmRlcmVuLmJlMFkwEwYHKoZIzj0CAQYIKoZIzj0DAQcDQgAE
x7PrnCQjlEfjOmCaFRGn0uJgRK1L8WOxBr18i6qcBATg4WQ/K0+fVxKwwBRBJpq5
EuBH8T88O0RnhaabgWCbgDAKBggqhkjOPQQDAgNHADBEAiBBmdOsq6ImPq2i2Dl9
YeJv2CUd5N1qlgoSJ4aHwFpf0gIgceRUTUOULHTdcuVwVKjZigZkc28QU/FxzxeN
rWXYUHQ=
-----END CERTIFICATE-----
