Certificate:
    Data:
        Version: 1 (0x0)
        Serial Number: 4124 (0x101c)
        Signature Algorithm: ecdsa-with-SHA256
        Issuer: C=CH, ST=Geneva, O=WHO, OU=TNG_TA, CN=WHO TNG_TA CA
        Validity
            Not Before: Jul  7 17:18:16 2023 GMT
            Not After : Jul 16 17:18:16 2024 GMT
        Subject: C=SE, O=Swedish eHealth Agency, CN=SE National DGC Trust Point for ACC
        Subject Public Key Info:
            Public Key Algorithm: id-ecPublicKey
                Public-Key: (256 bit)
                pub:
                    04:c7:b3:eb:9c:24:23:94:47:e3:3a:60:9a:15:11:
                    a7:d2:e2:60:44:ad:4b:f1:63:b1:06:bd:7c:8b:aa:
                    9c:04:04:e0:e1:64:3f:2b:4f:9f:57:12:b0:c0:14:
                    41:26:9a:b9:12:e0:47:f1:3f:3c:3b:44:67:85:a6:
                    9b:81:60:9b:80
                ASN1 OID: prime256v1
                NIST CURVE: P-256
    Signature Algorithm: ecdsa-with-SHA256
    Signature Value:
        30:45:02:21:00:f1:ba:9f:e2:32:8a:ab:ae:f2:3e:63:0b:39:
        7b:62:40:2c:fa:de:4f:fe:71:0a:a8:ff:1c:5e:11:50:9d:29:
        5e:02:20:4e:83:60:6d:e0:4a:4c:04:e5:7a:12:37:46:1a:89:
        c8:2f:dc:ef:ac:38:b3:f0:61:9d:aa:01:0a:cc:66:42:71
-----BEGIN CERTIFICATE-----
MIIBmjCCAUACAhAcMAoGCCqGSM49BAMCMFUxCzAJBgNVBAYTAkNIMQ8wDQYDVQQI
DAZHZW5ldmExDDAKBgNVBAoMA1dITzEPMA0GA1UECwwGVE5HX1RBMRYwFAYDVQQD
DA1XSE8gVE5HX1RBIENBMB4XDTIzMDcwNzE3MTgxNloXDTI0MDcxNjE3MTgxNlow
XDELMAkGA1UEBhMCU0UxHzAdBgNVBAoMFlN3ZWRpc2ggZUhlYWx0aCBBZ2VuY3kx
LDAqBgNVBAMMI1NFIE5hdGlvbmFsIERHQyBUcnVzdCBQb2ludCBmb3IgQUNDMFkw
EwYHKoZIzj0CAQYIKoZIzj0DAQcDQgAEx7PrnCQjlEfjOmCaFRGn0uJgRK1L8WOx
Br18i6qcBATg4WQ/K0+fVxKwwBRBJpq5EuBH8T88O0RnhaabgWCbgDAKBggqhkjO
PQQDAgNIADBFAiEA8bqf4jKKq67yPmMLOXtiQCz63k/+cQqo/xxeEVCdKV4CIE6D
YG3gSkwE5XoSN0Yaicgv3O+sOLPwYZ2qAQrMZkJx
-----END CERTIFICATE-----
