Certificate:
    Data:
        Version: 1 (0x0)
        Serial Number: 4107 (0x100b)
        Signature Algorithm: ecdsa-with-SHA256
        Issuer: C=CH, ST=Geneva, O=WHO, OU=TNG_TA, CN=WHO TNG_TA CA
        Validity
            Not Before: Jul  7 10:11:29 2023 GMT
            Not After : Jul 16 10:11:29 2024 GMT
        Subject: C=LV, O=NacionC481lais VeselC4ABbas dienests, OU=UPLOAD, CN=UPLOAD DGC TEST LV 002
        Subject Public Key Info:
            Public Key Algorithm: id-ecPublicKey
                Public-Key: (256 bit)
                pub:
                    04:c7:b3:eb:9c:24:23:94:47:e3:3a:60:9a:15:11:
                    a7:d2:e2:60:44:ad:4b:f1:63:b1:06:bd:7c:8b:aa:
                    9c:04:04:e0:e1:64:3f:2b:4f:9f:57:12:b0:c0:14:
                    41:26:9a:b9:12:e0:47:f1:3f:3c:3b:44:67:85:a6:
                    9b:81:60:9b:80
                ASN1 OID: prime256v1
                NIST CURVE: P-256
    Signature Algorithm: ecdsa-with-SHA256
    Signature Value:
        30:45:02:20:27:6b:89:61:fd:58:f7:ef:f4:5a:78:bb:de:ab:
        32:81:23:b8:2b:c0:c7:f1:ad:f9:e4:0b:42:68:15:75:4f:f2:
        02:21:00:9f:2c:7f:7e:ec:29:e2:ff:1e:f1:be:54:70:c7:09:
        80:ee:68:60:e7:99:9d:e5:d2:d9:39:41:38:8b:2f:95:7d
-----BEGIN CERTIFICATE-----
MIIBrDCCAVICAhALMAoGCCqGSM49BAMCMFUxCzAJBgNVBAYTAkNIMQ8wDQYDVQQI
DAZHZW5ldmExDDAKBgNVBAoMA1dITzEPMA0GA1UECwwGVE5HX1RBMRYwFAYDVQQD
DA1XSE8gVE5HX1RBIENBMB4XDTIzMDcwNzEwMTEyOVoXDTI0MDcxNjEwMTEyOVow
bjELMAkGA1UEBhMCTFYxLTArBgNVBAoMJE5hY2lvbkM0ODFsYWlzIFZlc2VsQzRB
QmJhcyBkaWVuZXN0czEPMA0GA1UECwwGVVBMT0FEMR8wHQYDVQQDDBZVUExPQUQg
REdDIFRFU1QgTFYgMDAyMFkwEwYHKoZIzj0CAQYIKoZIzj0DAQcDQgAEx7PrnCQj
lEfjOmCaFRGn0uJgRK1L8WOxBr18i6qcBATg4WQ/K0+fVxKwwBRBJpq5EuBH8T88
O0RnhaabgWCbgDAKBggqhkjOPQQDAgNIADBFAiAna4lh/Vj37/RaeLveqzKBI7gr
wMfxrfnkC0JoFXVP8gIhAJ8sf37sKeL/HvG+VHDHCYDuaGDnmZ3l0tk5QTiLL5V9
-----END CERTIFICATE-----
