Certificate:
    Data:
        Version: 1 (0x0)
        Serial Number: 4119 (0x1017)
        Signature Algorithm: ecdsa-with-SHA256
        Issuer: C=CH, ST=Geneva, O=WHO, OU=TNG_TA, CN=WHO TNG_TA CA
        Validity
            Not Before: Jul  7 17:18:15 2023 GMT
            Not After : Jul 16 17:18:15 2024 GMT
        Subject: C=LV, O=NacionC481lais VeselC4ABbas dienests, OU=UPLOAD, CN=UPLOAD DGC TEST LV 002
        Subject Public Key Info:
            Public Key Algorithm: id-ecPublicKey
                Public-Key: (256 bit)
                pub:
                    04:c7:b3:eb:9c:24:23:94:47:e3:3a:60:9a:15:11:
                    a7:d2:e2:60:44:ad:4b:f1:63:b1:06:bd:7c:8b:aa:
                    9c:04:04:e0:e1:64:3f:2b:4f:9f:57:12:b0:c0:14:
                    41:26:9a:b9:12:e0:47:f1:3f:3c:3b:44:67:85:a6:
                    9b:81:60:9b:80
                ASN1 OID: prime256v1
                NIST CURVE: P-256
    Signature Algorithm: ecdsa-with-SHA256
    Signature Value:
        30:45:02:20:63:4c:39:33:23:b6:b1:8a:1b:7e:f8:43:61:32:
        60:ff:50:85:8e:ad:2c:f3:06:c7:1b:0c:cf:b8:a4:90:6e:63:
        02:21:00:95:95:ab:83:6e:b7:5b:42:c2:35:68:c0:54:71:d8:
        eb:49:68:c0:29:15:7a:c4:2d:6c:c5:46:cc:d4:f4:1f:6f
-----BEGIN CERTIFICATE-----
MIIBrDCCAVICAhAXMAoGCCqGSM49BAMCMFUxCzAJBgNVBAYTAkNIMQ8wDQYDVQQI
DAZHZW5ldmExDDAKBgNVBAoMA1dITzEPMA0GA1UECwwGVE5HX1RBMRYwFAYDVQQD
DA1XSE8gVE5HX1RBIENBMB4XDTIzMDcwNzE3MTgxNVoXDTI0MDcxNjE3MTgxNVow
bjELMAkGA1UEBhMCTFYxLTArBgNVBAoMJE5hY2lvbkM0ODFsYWlzIFZlc2VsQzRB
QmJhcyBkaWVuZXN0czEPMA0GA1UECwwGVVBMT0FEMR8wHQYDVQQDDBZVUExPQUQg
REdDIFRFU1QgTFYgMDAyMFkwEwYHKoZIzj0CAQYIKoZIzj0DAQcDQgAEx7PrnCQj
lEfjOmCaFRGn0uJgRK1L8WOxBr18i6qcBATg4WQ/K0+fVxKwwBRBJpq5EuBH8T88
O0RnhaabgWCbgDAKBggqhkjOPQQDAgNIADBFAiBjTDkzI7axiht++ENhMmD/UIWO
rSzzBscbDM+4pJBuYwIhAJWVq4Nut1tCwjVowFRx2OtJaMApFXrELWzFRszU9B9v
-----END CERTIFICATE-----
