Certificate:
    Data:
        Version: 1 (0x0)
        Serial Number: 4167 (0x1047)
        Signature Algorithm: ecdsa-with-SHA256
        Issuer: C=CH, ST=Geneva, O=WHO, OU=TNG_TA, CN=WHO TNG_TA CA
        Validity
            Not Before: Jun 27 15:43:44 2023 GMT
            Not After : Jul  6 15:43:44 2024 GMT
        Subject: C=XX, ST=RYAN TEST COUNTRY, CN=XX/emailAddress=ryan@seldonplan.com
        Subject Public Key Info:
            Public Key Algorithm: id-ecPublicKey
                Public-Key: (256 bit)
                pub:
                    04:c7:b3:eb:9c:24:23:94:47:e3:3a:60:9a:15:11:
                    a7:d2:e2:60:44:ad:4b:f1:63:b1:06:bd:7c:8b:aa:
                    9c:04:04:e0:e1:64:3f:2b:4f:9f:57:12:b0:c0:14:
                    41:26:9a:b9:12:e0:47:f1:3f:3c:3b:44:67:85:a6:
                    9b:81:60:9b:80
                ASN1 OID: prime256v1
                NIST CURVE: P-256
    Signature Algorithm: ecdsa-with-SHA256
         30:45:02:21:00:90:1c:5c:77:57:eb:59:e3:8a:e7:96:32:9b:
         62:2a:2c:7d:3e:d3:4c:af:98:bf:86:28:a9:48:57:1d:cb:fb:
         c1:02:20:07:8b:b2:05:3f:4e:58:ef:9d:9b:fd:40:88:5e:90:
         e6:28:84:9a:0b:03:c5:65:1f:49:9f:2d:7c:f1:03:a5:aa
-----BEGIN CERTIFICATE-----
MIIBmDCCAT4CAhBHMAoGCCqGSM49BAMCMFUxCzAJBgNVBAYTAkNIMQ8wDQYDVQQI
DAZHZW5ldmExDDAKBgNVBAoMA1dITzEPMA0GA1UECwwGVE5HX1RBMRYwFAYDVQQD
DA1XSE8gVE5HX1RBIENBMB4XDTIzMDYyNzE1NDM0NFoXDTI0MDcwNjE1NDM0NFow
WjELMAkGA1UEBhMCWFgxGjAYBgNVBAgMEVJZQU4gVEVTVCBDT1VOVFJZMQswCQYD
VQQDDAJYWDEiMCAGCSqGSIb3DQEJARYTcnlhbkBzZWxkb25wbGFuLmNvbTBZMBMG
ByqGSM49AgEGCCqGSM49AwEHA0IABMez65wkI5RH4zpgmhURp9LiYEStS/FjsQa9
fIuqnAQE4OFkPytPn1cSsMAUQSaauRLgR/E/PDtEZ4Wmm4Fgm4AwCgYIKoZIzj0E
AwIDSAAwRQIhAJAcXHdX61njiueWMptiKix9PtNMr5i/hiipSFcdy/vBAiAHi7IF
P05Y752b/UCIXpDmKISaCwPFZR9Jny188QOlqg==
-----END CERTIFICATE-----
