Certificate:
    Data:
        Version: 1 (0x0)
        Serial Number: 4110 (0x100e)
        Signature Algorithm: ecdsa-with-SHA256
        Issuer: C=CH, ST=Geneva, O=WHO, OU=TNG_TA, CN=WHO TNG_TA CA
        Validity
            Not Before: Jul  7 17:18:15 2023 GMT
            Not After : Jul 16 17:18:15 2024 GMT
        Subject: C=FI, ST=Finland, L=Helsinki, O=Digi- ja vaestotietovirasto, CN=test.dgc.cloud.dvv.fi
        Subject Public Key Info:
            Public Key Algorithm: id-ecPublicKey
                Public-Key: (256 bit)
                pub:
                    04:c7:b3:eb:9c:24:23:94:47:e3:3a:60:9a:15:11:
                    a7:d2:e2:60:44:ad:4b:f1:63:b1:06:bd:7c:8b:aa:
                    9c:04:04:e0:e1:64:3f:2b:4f:9f:57:12:b0:c0:14:
                    41:26:9a:b9:12:e0:47:f1:3f:3c:3b:44:67:85:a6:
                    9b:81:60:9b:80
                ASN1 OID: prime256v1
                NIST CURVE: P-256
    Signature Algorithm: ecdsa-with-SHA256
    Signature Value:
        30:45:02:20:19:62:b1:c2:f9:6b:54:8a:62:dc:b1:78:49:b3:
        2a:88:d1:c8:c8:4d:64:9c:6c:bd:56:7e:79:81:9b:29:f2:63:
        02:21:00:de:ab:77:52:e8:86:75:99:72:3d:17:0c:58:c6:17:
        d6:93:f5:0c:cf:78:af:45:f8:94:87:0e:f7:37:b9:ff:81
-----BEGIN CERTIFICATE-----
MIIBtjCCAVwCAhAOMAoGCCqGSM49BAMCMFUxCzAJBgNVBAYTAkNIMQ8wDQYDVQQI
DAZHZW5ldmExDDAKBgNVBAoMA1dITzEPMA0GA1UECwwGVE5HX1RBMRYwFAYDVQQD
DA1XSE8gVE5HX1RBIENBMB4XDTIzMDcwNzE3MTgxNVoXDTI0MDcxNjE3MTgxNVow
eDELMAkGA1UEBhMCRkkxEDAOBgNVBAgMB0ZpbmxhbmQxETAPBgNVBAcMCEhlbHNp
bmtpMSQwIgYDVQQKDBtEaWdpLSBqYSB2YWVzdG90aWV0b3ZpcmFzdG8xHjAcBgNV
BAMMFXRlc3QuZGdjLmNsb3VkLmR2di5maTBZMBMGByqGSM49AgEGCCqGSM49AwEH
A0IABMez65wkI5RH4zpgmhURp9LiYEStS/FjsQa9fIuqnAQE4OFkPytPn1cSsMAU
QSaauRLgR/E/PDtEZ4Wmm4Fgm4AwCgYIKoZIzj0EAwIDSAAwRQIgGWKxwvlrVIpi
3LF4SbMqiNHIyE1knGy9Vn55gZsp8mMCIQDeq3dS6IZ1mXI9FwxYxhfWk/UMz3iv
RfiUhw73N7n/gQ==
-----END CERTIFICATE-----
