Certificate:
    Data:
        Version: 1 (0x0)
        Serial Number: 4103 (0x1007)
        Signature Algorithm: ecdsa-with-SHA256
        Issuer: C=CH, ST=Geneva, O=WHO, OU=TNG_TA, CN=WHO TNG_TA CA
        Validity
            Not Before: Jul  7 10:11:29 2023 GMT
            Not After : Jul 16 10:11:29 2024 GMT
        Subject: C=FI, ST=Finland, L=Helsinki, O=Digi- ja vaestotietovirasto, CN=test.dgc.cloud.dvv.fi
        Subject Public Key Info:
            Public Key Algorithm: id-ecPublicKey
                Public-Key: (256 bit)
                pub:
                    04:c7:b3:eb:9c:24:23:94:47:e3:3a:60:9a:15:11:
                    a7:d2:e2:60:44:ad:4b:f1:63:b1:06:bd:7c:8b:aa:
                    9c:04:04:e0:e1:64:3f:2b:4f:9f:57:12:b0:c0:14:
                    41:26:9a:b9:12:e0:47:f1:3f:3c:3b:44:67:85:a6:
                    9b:81:60:9b:80
                ASN1 OID: prime256v1
                NIST CURVE: P-256
    Signature Algorithm: ecdsa-with-SHA256
    Signature Value:
        30:45:02:20:1a:f2:e4:54:01:ec:b8:1f:c3:e7:65:9f:1b:84:
        c7:74:99:79:80:f1:d9:f8:6e:ba:ae:26:5b:e4:3d:78:e0:61:
        02:21:00:93:00:56:f5:f4:9a:5f:9f:5a:24:cf:af:55:ef:5d:
        93:74:d2:46:ca:42:17:0e:2a:81:15:59:ad:b4:06:78:20
-----BEGIN CERTIFICATE-----
MIIBtjCCAVwCAhAHMAoGCCqGSM49BAMCMFUxCzAJBgNVBAYTAkNIMQ8wDQYDVQQI
DAZHZW5ldmExDDAKBgNVBAoMA1dITzEPMA0GA1UECwwGVE5HX1RBMRYwFAYDVQQD
DA1XSE8gVE5HX1RBIENBMB4XDTIzMDcwNzEwMTEyOVoXDTI0MDcxNjEwMTEyOVow
eDELMAkGA1UEBhMCRkkxEDAOBgNVBAgMB0ZpbmxhbmQxETAPBgNVBAcMCEhlbHNp
bmtpMSQwIgYDVQQKDBtEaWdpLSBqYSB2YWVzdG90aWV0b3ZpcmFzdG8xHjAcBgNV
BAMMFXRlc3QuZGdjLmNsb3VkLmR2di5maTBZMBMGByqGSM49AgEGCCqGSM49AwEH
A0IABMez65wkI5RH4zpgmhURp9LiYEStS/FjsQa9fIuqnAQE4OFkPytPn1cSsMAU
QSaauRLgR/E/PDtEZ4Wmm4Fgm4AwCgYIKoZIzj0EAwIDSAAwRQIgGvLkVAHsuB/D
52WfG4THdJl5gPHZ+G66riZb5D144GECIQCTAFb19Jpfn1okz69V712TdNJGykIX
DiqBFVmttAZ4IA==
-----END CERTIFICATE-----
