Certificate:
    Data:
        Version: 1 (0x0)
        Serial Number: 4111 (0x100f)
        Signature Algorithm: ecdsa-with-SHA256
        Issuer: C=CH, ST=Geneva, O=WHO, OU=TNG_TA, CN=WHO TNG_TA CA
        Validity
            Not Before: Jul  7 17:18:15 2023 GMT
            Not After : Jul 16 17:18:15 2024 GMT
        Subject: C=FI, ST=Finland, L=Helsinki, O=Digi- ja vaestotietovirasto, CN=test.dgc.cloud.dvv.fi
        Subject Public Key Info:
            Public Key Algorithm: id-ecPublicKey
                Public-Key: (256 bit)
                pub:
                    04:c7:b3:eb:9c:24:23:94:47:e3:3a:60:9a:15:11:
                    a7:d2:e2:60:44:ad:4b:f1:63:b1:06:bd:7c:8b:aa:
                    9c:04:04:e0:e1:64:3f:2b:4f:9f:57:12:b0:c0:14:
                    41:26:9a:b9:12:e0:47:f1:3f:3c:3b:44:67:85:a6:
                    9b:81:60:9b:80
                ASN1 OID: prime256v1
                NIST CURVE: P-256
    Signature Algorithm: ecdsa-with-SHA256
    Signature Value:
        30:45:02:21:00:f6:15:68:80:69:19:a6:a3:13:66:c4:ce:90:
        81:31:0f:39:86:69:32:bf:4a:70:36:d5:ab:7d:7a:1b:11:af:
        77:02:20:0e:f7:6f:ca:24:bf:42:02:4f:0e:e3:15:45:78:0e:
        5a:e5:3a:a1:91:24:02:9a:22:4e:ea:7f:2e:33:5b:7e:5b
-----BEGIN CERTIFICATE-----
MIIBtjCCAVwCAhAPMAoGCCqGSM49BAMCMFUxCzAJBgNVBAYTAkNIMQ8wDQYDVQQI
DAZHZW5ldmExDDAKBgNVBAoMA1dITzEPMA0GA1UECwwGVE5HX1RBMRYwFAYDVQQD
DA1XSE8gVE5HX1RBIENBMB4XDTIzMDcwNzE3MTgxNVoXDTI0MDcxNjE3MTgxNVow
eDELMAkGA1UEBhMCRkkxEDAOBgNVBAgMB0ZpbmxhbmQxETAPBgNVBAcMCEhlbHNp
bmtpMSQwIgYDVQQKDBtEaWdpLSBqYSB2YWVzdG90aWV0b3ZpcmFzdG8xHjAcBgNV
BAMMFXRlc3QuZGdjLmNsb3VkLmR2di5maTBZMBMGByqGSM49AgEGCCqGSM49AwEH
A0IABMez65wkI5RH4zpgmhURp9LiYEStS/FjsQa9fIuqnAQE4OFkPytPn1cSsMAU
QSaauRLgR/E/PDtEZ4Wmm4Fgm4AwCgYIKoZIzj0EAwIDSAAwRQIhAPYVaIBpGaaj
E2bEzpCBMQ85hmkyv0pwNtWrfXobEa93AiAO92/KJL9CAk8O4xVFeA5a5TqhkSQC
miJO6n8uM1t+Ww==
-----END CERTIFICATE-----
