Certificate:
    Data:
        Version: 1 (0x0)
        Serial Number: 4125 (0x101d)
        Signature Algorithm: ecdsa-with-SHA256
        Issuer: C=CH, ST=Geneva, O=WHO, OU=TNG_TA, CN=WHO TNG_TA CA
        Validity
            Not Before: Jul  7 17:18:16 2023 GMT
            Not After : Jul 16 17:18:16 2024 GMT
        Subject: C=DE, O=T-Systems International GmbH, OU=Trust Center, CN=Deutsche Telekom Internal Root CA 2
        Subject Public Key Info:
            Public Key Algorithm: id-ecPublicKey
                Public-Key: (256 bit)
                pub:
                    04:c7:b3:eb:9c:24:23:94:47:e3:3a:60:9a:15:11:
                    a7:d2:e2:60:44:ad:4b:f1:63:b1:06:bd:7c:8b:aa:
                    9c:04:04:e0:e1:64:3f:2b:4f:9f:57:12:b0:c0:14:
                    41:26:9a:b9:12:e0:47:f1:3f:3c:3b:44:67:85:a6:
                    9b:81:60:9b:80
                ASN1 OID: prime256v1
                NIST CURVE: P-256
    Signature Algorithm: ecdsa-with-SHA256
    Signature Value:
        30:45:02:21:00:cd:9a:c9:2f:da:34:98:10:d6:a8:87:09:4e:
        89:38:43:53:f0:dd:6e:75:27:8e:ad:95:a6:1a:45:4d:ad:2d:
        79:02:20:23:20:ec:55:ec:f9:ab:45:03:35:56:80:2e:c3:60:
        48:6e:e1:a0:9f:ac:25:db:b8:77:21:d9:e1:69:e3:dd:78
-----BEGIN CERTIFICATE-----
MIIBtzCCAV0CAhAdMAoGCCqGSM49BAMCMFUxCzAJBgNVBAYTAkNIMQ8wDQYDVQQI
DAZHZW5ldmExDDAKBgNVBAoMA1dITzEPMA0GA1UECwwGVE5HX1RBMRYwFAYDVQQD
DA1XSE8gVE5HX1RBIENBMB4XDTIzMDcwNzE3MTgxNloXDTI0MDcxNjE3MTgxNlow
eTELMAkGA1UEBhMCREUxJTAjBgNVBAoMHFQtU3lzdGVtcyBJbnRlcm5hdGlvbmFs
IEdtYkgxFTATBgNVBAsMDFRydXN0IENlbnRlcjEsMCoGA1UEAwwjRGV1dHNjaGUg
VGVsZWtvbSBJbnRlcm5hbCBSb290IENBIDIwWTATBgcqhkjOPQIBBggqhkjOPQMB
BwNCAATHs+ucJCOUR+M6YJoVEafS4mBErUvxY7EGvXyLqpwEBODhZD8rT59XErDA
FEEmmrkS4EfxPzw7RGeFppuBYJuAMAoGCCqGSM49BAMCA0gAMEUCIQDNmskv2jSY
ENaohwlOiThDU/DdbnUnjq2VphpFTa0teQIgIyDsVez5q0UDNVaALsNgSG7hoJ+s
Jdu4dyHZ4Wnj3Xg=
-----END CERTIFICATE-----
