Certificate:
    Data:
        Version: 1 (0x0)
        Serial Number: 4110 (0x100e)
        Signature Algorithm: ecdsa-with-SHA256
        Issuer: C=CH, ST=Geneva, O=WHO, OU=TNG_TA, CN=WHO TNG_TA CA
        Validity
            Not Before: Jul  7 10:11:29 2023 GMT
            Not After : Jul 16 10:11:29 2024 GMT
        Subject: C=DE, O=T-Systems International GmbH, OU=Trust Center, CN=Deutsche Telekom Internal Root CA 2
        Subject Public Key Info:
            Public Key Algorithm: id-ecPublicKey
                Public-Key: (256 bit)
                pub:
                    04:c7:b3:eb:9c:24:23:94:47:e3:3a:60:9a:15:11:
                    a7:d2:e2:60:44:ad:4b:f1:63:b1:06:bd:7c:8b:aa:
                    9c:04:04:e0:e1:64:3f:2b:4f:9f:57:12:b0:c0:14:
                    41:26:9a:b9:12:e0:47:f1:3f:3c:3b:44:67:85:a6:
                    9b:81:60:9b:80
                ASN1 OID: prime256v1
                NIST CURVE: P-256
    Signature Algorithm: ecdsa-with-SHA256
    Signature Value:
        30:44:02:20:0d:1e:09:35:fa:86:ff:aa:48:af:43:fa:d2:7d:
        4d:6f:ee:bd:4b:77:be:1f:43:d1:52:42:36:3b:a8:d1:a2:e6:
        02:20:69:78:5b:4d:2d:6e:92:1b:b2:22:81:3d:d9:fc:4b:01:
        bd:67:93:db:43:b3:9f:20:d4:7b:e2:a7:b1:5f:84:0b
-----BEGIN CERTIFICATE-----
MIIBtjCCAV0CAhAOMAoGCCqGSM49BAMCMFUxCzAJBgNVBAYTAkNIMQ8wDQYDVQQI
DAZHZW5ldmExDDAKBgNVBAoMA1dITzEPMA0GA1UECwwGVE5HX1RBMRYwFAYDVQQD
DA1XSE8gVE5HX1RBIENBMB4XDTIzMDcwNzEwMTEyOVoXDTI0MDcxNjEwMTEyOVow
eTELMAkGA1UEBhMCREUxJTAjBgNVBAoMHFQtU3lzdGVtcyBJbnRlcm5hdGlvbmFs
IEdtYkgxFTATBgNVBAsMDFRydXN0IENlbnRlcjEsMCoGA1UEAwwjRGV1dHNjaGUg
VGVsZWtvbSBJbnRlcm5hbCBSb290IENBIDIwWTATBgcqhkjOPQIBBggqhkjOPQMB
BwNCAATHs+ucJCOUR+M6YJoVEafS4mBErUvxY7EGvXyLqpwEBODhZD8rT59XErDA
FEEmmrkS4EfxPzw7RGeFppuBYJuAMAoGCCqGSM49BAMCA0cAMEQCIA0eCTX6hv+q
SK9D+tJ9TW/uvUt3vh9D0VJCNjuo0aLmAiBpeFtNLW6SG7IigT3Z/EsBvWeT20Oz
nyDUe+KnsV+ECw==
-----END CERTIFICATE-----
