Certificate:
    Data:
        Version: 1 (0x0)
        Serial Number: 4126 (0x101e)
        Signature Algorithm: ecdsa-with-SHA256
        Issuer: C=CH, ST=Geneva, O=WHO, OU=TNG_TA, CN=WHO TNG_TA CA
        Validity
            Not Before: Jul  7 17:18:16 2023 GMT
            Not After : Jul 16 17:18:16 2024 GMT
        Subject: C=XC, ST=Test Country XC, O=Health Authority, CN=testcountry.xc/emailAddress=sandhur@who.int
        Subject Public Key Info:
            Public Key Algorithm: id-ecPublicKey
                Public-Key: (256 bit)
                pub:
                    04:c7:b3:eb:9c:24:23:94:47:e3:3a:60:9a:15:11:
                    a7:d2:e2:60:44:ad:4b:f1:63:b1:06:bd:7c:8b:aa:
                    9c:04:04:e0:e1:64:3f:2b:4f:9f:57:12:b0:c0:14:
                    41:26:9a:b9:12:e0:47:f1:3f:3c:3b:44:67:85:a6:
                    9b:81:60:9b:80
                ASN1 OID: prime256v1
                NIST CURVE: P-256
    Signature Algorithm: ecdsa-with-SHA256
    Signature Value:
        30:44:02:20:37:92:5e:4a:66:28:16:ce:40:d3:a2:73:d6:88:
        8e:09:95:62:c8:59:55:44:74:dc:ae:3d:a3:52:33:b1:ad:c3:
        02:20:5c:a1:f6:cb:42:fb:4e:95:ec:f9:93:50:a2:06:ac:b9:
        f0:ba:65:ab:17:28:b6:e5:cb:6d:e8:92:4a:ab:b8:d8
-----BEGIN CERTIFICATE-----
MIIBuDCCAV8CAhAeMAoGCCqGSM49BAMCMFUxCzAJBgNVBAYTAkNIMQ8wDQYDVQQI
DAZHZW5ldmExDDAKBgNVBAoMA1dITzEPMA0GA1UECwwGVE5HX1RBMRYwFAYDVQQD
DA1XSE8gVE5HX1RBIENBMB4XDTIzMDcwNzE3MTgxNloXDTI0MDcxNjE3MTgxNlow
ezELMAkGA1UEBhMCWEMxGDAWBgNVBAgMD1Rlc3QgQ291bnRyeSBYQzEZMBcGA1UE
CgwQSGVhbHRoIEF1dGhvcml0eTEXMBUGA1UEAwwOdGVzdGNvdW50cnkueGMxHjAc
BgkqhkiG9w0BCQEWD3NhbmRodXJAd2hvLmludDBZMBMGByqGSM49AgEGCCqGSM49
AwEHA0IABMez65wkI5RH4zpgmhURp9LiYEStS/FjsQa9fIuqnAQE4OFkPytPn1cS
sMAUQSaauRLgR/E/PDtEZ4Wmm4Fgm4AwCgYIKoZIzj0EAwIDRwAwRAIgN5JeSmYo
Fs5A06Jz1oiOCZViyFlVRHTcrj2jUjOxrcMCIFyh9stC+06V7PmTUKIGrLnwumWr
Fyi25ctt6JJKq7jY
-----END CERTIFICATE-----
