Certificate:
    Data:
        Version: 1 (0x0)
        Serial Number: 4109 (0x100d)
        Signature Algorithm: ecdsa-with-SHA256
        Issuer: C=CH, ST=Geneva, O=WHO, OU=TNG_TA, CN=WHO TNG_TA CA
        Validity
            Not Before: Jul  7 17:18:15 2023 GMT
            Not After : Jul 16 17:18:15 2024 GMT
        Subject: C=FI, O=Digi- ja vaestotietovirasto CA, OU=Sosiaali- ja terveydenhuollon palveluvarmenteet, CN=DVV Social Welfare and Healthcare Service Certificates - G3E
        Subject Public Key Info:
            Public Key Algorithm: id-ecPublicKey
                Public-Key: (256 bit)
                pub:
                    04:c7:b3:eb:9c:24:23:94:47:e3:3a:60:9a:15:11:
                    a7:d2:e2:60:44:ad:4b:f1:63:b1:06:bd:7c:8b:aa:
                    9c:04:04:e0:e1:64:3f:2b:4f:9f:57:12:b0:c0:14:
                    41:26:9a:b9:12:e0:47:f1:3f:3c:3b:44:67:85:a6:
                    9b:81:60:9b:80
                ASN1 OID: prime256v1
                NIST CURVE: P-256
    Signature Algorithm: ecdsa-with-SHA256
    Signature Value:
        30:44:02:20:00:f0:71:89:3f:e5:2f:f3:e5:2a:4d:6e:03:5a:
        a6:4b:fc:96:42:35:f7:ee:be:ae:d9:f8:40:5f:19:aa:ed:60:
        02:20:40:37:2b:85:e2:ce:a4:3c:97:f0:b6:0c:57:d6:8f:13:
        77:9a:75:29:f6:15:3d:a6:44:ef:f7:18:29:4c:d8:1c
-----BEGIN CERTIFICATE-----
MIIB9TCCAZwCAhANMAoGCCqGSM49BAMCMFUxCzAJBgNVBAYTAkNIMQ8wDQYDVQQI
DAZHZW5ldmExDDAKBgNVBAoMA1dITzEPMA0GA1UECwwGVE5HX1RBMRYwFAYDVQQD
DA1XSE8gVE5HX1RBIENBMB4XDTIzMDcwNzE3MTgxNVoXDTI0MDcxNjE3MTgxNVow
gbcxCzAJBgNVBAYTAkZJMScwJQYDVQQKDB5EaWdpLSBqYSB2YWVzdG90aWV0b3Zp
cmFzdG8gQ0ExODA2BgNVBAsML1Nvc2lhYWxpLSBqYSB0ZXJ2ZXlkZW5odW9sbG9u
IHBhbHZlbHV2YXJtZW50ZWV0MUUwQwYDVQQDDDxEVlYgU29jaWFsIFdlbGZhcmUg
YW5kIEhlYWx0aGNhcmUgU2VydmljZSBDZXJ0aWZpY2F0ZXMgLSBHM0UwWTATBgcq
hkjOPQIBBggqhkjOPQMBBwNCAATHs+ucJCOUR+M6YJoVEafS4mBErUvxY7EGvXyL
qpwEBODhZD8rT59XErDAFEEmmrkS4EfxPzw7RGeFppuBYJuAMAoGCCqGSM49BAMC
A0cAMEQCIADwcYk/5S/z5SpNbgNapkv8lkI19+6+rtn4QF8Zqu1gAiBANyuF4s6k
PJfwtgxX1o8Td5p1KfYVPaZE7/cYKUzYHA==
-----END CERTIFICATE-----
