Certificate:
    Data:
        Version: 1 (0x0)
        Serial Number: 4134 (0x1026)
        Signature Algorithm: ecdsa-with-SHA256
        Issuer: C=CH, ST=Geneva, O=WHO, OU=TNG_TA, CN=WHO TNG_TA CA
        Validity
            Not Before: Jul  7 17:18:17 2023 GMT
            Not After : Jul 16 17:18:17 2024 GMT
        Subject: C=XD, CN=upload.testcountry.xd/emailAddress=sandhur@who.int
        Subject Public Key Info:
            Public Key Algorithm: id-ecPublicKey
                Public-Key: (256 bit)
                pub:
                    04:c7:b3:eb:9c:24:23:94:47:e3:3a:60:9a:15:11:
                    a7:d2:e2:60:44:ad:4b:f1:63:b1:06:bd:7c:8b:aa:
                    9c:04:04:e0:e1:64:3f:2b:4f:9f:57:12:b0:c0:14:
                    41:26:9a:b9:12:e0:47:f1:3f:3c:3b:44:67:85:a6:
                    9b:81:60:9b:80
                ASN1 OID: prime256v1
                NIST CURVE: P-256
    Signature Algorithm: ecdsa-with-SHA256
    Signature Value:
        30:45:02:20:08:88:3f:cb:23:a8:72:f1:72:2a:30:61:86:e8:
        1d:c0:6a:0d:b0:1f:da:0b:ba:5d:34:e4:f5:af:00:33:5c:26:
        02:21:00:cb:63:9b:3c:56:91:57:5b:c5:4f:dc:6a:c6:a5:66:
        4d:04:b5:8f:24:c6:2c:2a:b4:3b:f2:6a:90:f3:c6:31:f4
-----BEGIN CERTIFICATE-----
MIIBizCCATECAhAmMAoGCCqGSM49BAMCMFUxCzAJBgNVBAYTAkNIMQ8wDQYDVQQI
DAZHZW5ldmExDDAKBgNVBAoMA1dITzEPMA0GA1UECwwGVE5HX1RBMRYwFAYDVQQD
DA1XSE8gVE5HX1RBIENBMB4XDTIzMDcwNzE3MTgxN1oXDTI0MDcxNjE3MTgxN1ow
TTELMAkGA1UEBhMCWEQxHjAcBgNVBAMMFXVwbG9hZC50ZXN0Y291bnRyeS54ZDEe
MBwGCSqGSIb3DQEJARYPc2FuZGh1ckB3aG8uaW50MFkwEwYHKoZIzj0CAQYIKoZI
zj0DAQcDQgAEx7PrnCQjlEfjOmCaFRGn0uJgRK1L8WOxBr18i6qcBATg4WQ/K0+f
VxKwwBRBJpq5EuBH8T88O0RnhaabgWCbgDAKBggqhkjOPQQDAgNIADBFAiAIiD/L
I6hy8XIqMGGG6B3Aag2wH9oLul005PWvADNcJgIhAMtjmzxWkVdbxU/casalZk0E
tY8kxiwqtDvyapDzxjH0
-----END CERTIFICATE-----
