Certificate:
    Data:
        Version: 1 (0x0)
        Serial Number: 4135 (0x1027)
        Signature Algorithm: ecdsa-with-SHA256
        Issuer: C=CH, ST=Geneva, O=WHO, OU=TNG_TA, CN=WHO TNG_TA CA
        Validity
            Not Before: Jul  7 17:18:17 2023 GMT
            Not After : Jul 16 17:18:17 2024 GMT
        Subject: C=XD, CN=upload.testcountry.xd/emailAddress=sandhur@who.int
        Subject Public Key Info:
            Public Key Algorithm: id-ecPublicKey
                Public-Key: (256 bit)
                pub:
                    04:c7:b3:eb:9c:24:23:94:47:e3:3a:60:9a:15:11:
                    a7:d2:e2:60:44:ad:4b:f1:63:b1:06:bd:7c:8b:aa:
                    9c:04:04:e0:e1:64:3f:2b:4f:9f:57:12:b0:c0:14:
                    41:26:9a:b9:12:e0:47:f1:3f:3c:3b:44:67:85:a6:
                    9b:81:60:9b:80
                ASN1 OID: prime256v1
                NIST CURVE: P-256
    Signature Algorithm: ecdsa-with-SHA256
    Signature Value:
        30:46:02:21:00:89:ef:7a:36:2e:8f:bc:f8:5e:16:7e:17:9a:
        c0:91:0a:ba:ee:75:ad:25:6c:a3:31:50:06:8f:84:1f:35:06:
        44:02:21:00:ce:91:64:e4:c8:28:95:77:19:d3:d8:80:a0:30:
        b0:49:bd:8b:84:ca:fc:89:21:98:30:62:23:fa:99:74:96:a1
-----BEGIN CERTIFICATE-----
MIIBjDCCATECAhAnMAoGCCqGSM49BAMCMFUxCzAJBgNVBAYTAkNIMQ8wDQYDVQQI
DAZHZW5ldmExDDAKBgNVBAoMA1dITzEPMA0GA1UECwwGVE5HX1RBMRYwFAYDVQQD
DA1XSE8gVE5HX1RBIENBMB4XDTIzMDcwNzE3MTgxN1oXDTI0MDcxNjE3MTgxN1ow
TTELMAkGA1UEBhMCWEQxHjAcBgNVBAMMFXVwbG9hZC50ZXN0Y291bnRyeS54ZDEe
MBwGCSqGSIb3DQEJARYPc2FuZGh1ckB3aG8uaW50MFkwEwYHKoZIzj0CAQYIKoZI
zj0DAQcDQgAEx7PrnCQjlEfjOmCaFRGn0uJgRK1L8WOxBr18i6qcBATg4WQ/K0+f
VxKwwBRBJpq5EuBH8T88O0RnhaabgWCbgDAKBggqhkjOPQQDAgNJADBGAiEAie96
Ni6PvPheFn4XmsCRCrruda0lbKMxUAaPhB81BkQCIQDOkWTkyCiVdxnT2ICgMLBJ
vYuEyvyJIZgwYiP6mXSWoQ==
-----END CERTIFICATE-----
