Certificate:
    Data:
        Version: 1 (0x0)
        Serial Number: 4121 (0x1019)
        Signature Algorithm: ecdsa-with-SHA256
        Issuer: C=CH, ST=Geneva, O=WHO, OU=TNG_TA, CN=WHO TNG_TA CA
        Validity
            Not Before: Jul  7 17:18:16 2023 GMT
            Not After : Jul 16 17:18:16 2024 GMT
        Subject: C=SE, O=Myndigheten fF6r digital fF6rvaltning, OU=Digital Green Certificate Services, CN=Swedish Test Digital Green Certificate CSCA
        Subject Public Key Info:
            Public Key Algorithm: id-ecPublicKey
                Public-Key: (256 bit)
                pub:
                    04:c7:b3:eb:9c:24:23:94:47:e3:3a:60:9a:15:11:
                    a7:d2:e2:60:44:ad:4b:f1:63:b1:06:bd:7c:8b:aa:
                    9c:04:04:e0:e1:64:3f:2b:4f:9f:57:12:b0:c0:14:
                    41:26:9a:b9:12:e0:47:f1:3f:3c:3b:44:67:85:a6:
                    9b:81:60:9b:80
                ASN1 OID: prime256v1
                NIST CURVE: P-256
    Signature Algorithm: ecdsa-with-SHA256
    Signature Value:
        30:46:02:21:00:9c:ce:7b:7a:31:f1:9a:87:7d:45:c1:17:1f:
        c8:cd:e0:32:bc:6c:10:1d:8a:a8:62:54:23:34:26:13:17:99:
        9a:02:21:00:c6:ba:73:20:de:f1:de:83:31:ca:f2:5c:3e:6e:
        c7:1e:8d:d2:e3:87:43:6c:9b:a2:1b:46:c5:8a:cb:da:c3:e3
-----BEGIN CERTIFICATE-----
MIIB4DCCAYUCAhAZMAoGCCqGSM49BAMCMFUxCzAJBgNVBAYTAkNIMQ8wDQYDVQQI
DAZHZW5ldmExDDAKBgNVBAoMA1dITzEPMA0GA1UECwwGVE5HX1RBMRYwFAYDVQQD
DA1XSE8gVE5HX1RBIENBMB4XDTIzMDcwNzE3MTgxNloXDTI0MDcxNjE3MTgxNlow
gaAxCzAJBgNVBAYTAlNFMS4wLAYDVQQKDCVNeW5kaWdoZXRlbiBmRjZyIGRpZ2l0
YWwgZkY2cnZhbHRuaW5nMSswKQYDVQQLDCJEaWdpdGFsIEdyZWVuIENlcnRpZmlj
YXRlIFNlcnZpY2VzMTQwMgYDVQQDDCtTd2VkaXNoIFRlc3QgRGlnaXRhbCBHcmVl
biBDZXJ0aWZpY2F0ZSBDU0NBMFkwEwYHKoZIzj0CAQYIKoZIzj0DAQcDQgAEx7Pr
nCQjlEfjOmCaFRGn0uJgRK1L8WOxBr18i6qcBATg4WQ/K0+fVxKwwBRBJpq5EuBH
8T88O0RnhaabgWCbgDAKBggqhkjOPQQDAgNJADBGAiEAnM57ejHxmod9RcEXH8jN
4DK8bBAdiqhiVCM0JhMXmZoCIQDGunMg3vHegzHK8lw+bscejdLjh0Nsm6IbRsWK
y9rD4w==
-----END CERTIFICATE-----
